******************************************************************************
                  TI ARM Linker PC v15.12.3                    
******************************************************************************
>> Linked Sun Dec 18 14:45:52 2016

OUTPUT FILE NAME:   <CDIO_CC3200.out>
ENTRY POINT SYMBOL: "_c_int00"  address: 20028edd


MEMORY CONFIGURATION

         name            origin    length      used     unused   attr    fill
----------------------  --------  ---------  --------  --------  ----  --------
  SRAM                  20004000   0003c000  0002af00  00011100  RW X


SEGMENT ALLOCATION MAP

run origin  load origin   length   init length attrs members
----------  ----------- ---------- ----------- ----- -------
20004000    20004000    0000030c   0000030c    r--
  20004000    20004000    0000030c   0000030c    r-- .resetVecs
20004400    20004400    0001845d   00000000    rw-
  20004400    20004400    0001845d   00000000    rw- .bss
2001c860    2001c860    00011c54   00011c54    r-x
  2001c860    2001c860    0000f4da   0000f4da    r-x .text
  2002bd3c    2002bd3c    00002778   00002778    r-- .const
2002e4b4    2002e4b4    000007d8   00000000    rw-
  2002e4b4    2002e4b4    000004d5   00000000    rw- .data
  2002e98c    2002e98c    00000300   00000000    rw- .stack
2002ec90    2002ec90    00000370   00000370    r--
  2002ec90    2002ec90    00000370   00000370    r-- .cinit


SECTION ALLOCATION MAP

 output                                  attributes/
section   page    origin      length       input sections
--------  ----  ----------  ----------   ----------------
.bss       0    20004400    0001845d     UNINITIALIZED
                  20004400    0000ea60     CDIO_CC3200.obj (.bss:printData)
                  20012e60    00004e20     (.common:task1Stack)
                  20017c80    00002710     (.common:task0Stack)
                  2001a390    00001400     (.common:ti_sysbios_heaps_HeapMem_Instance_State_0_buf__A)
                  2001b790    00000050     (.common:task0Struct)
                  2001b7e0    00000020     (.common:gpioCallbackInfo)
                  2001b800    00000400     CC3200_LAUNCHXL.obj (.bss:dmaControlTable)
                  2001bc00    0000030c     (.common:ti_sysbios_family_arm_m3_Hwi_dispatchTable)
                  2001bf0c    00000004     simplelink_func.obj (.bss)
                  2001bf10    00000200     CDIO_CC3200_pem4.oem4 (.bss:taskStackSection)
                  2001c110    00000200     (.common:xdc_runtime_SysMin_Module_State_0_outbuf__A)
                  2001c310    0000012c     drivers_cc32xxware.aem4 : PowerCC3200.oem4 (.bss:PowerCC3200_contextSave)
                  2001c43c    00000120     rtsv7M4_T_le_eabi.lib : trgmsg.obj (.bss:_CIOBUF_)
                  2001c55c    00000108     (.common:uartCC3200Objects)
                  2001c664    00000078     (.common:SPICC3200DMAObjects)
                  2001c6dc    00000050     (.common:task1Struct)
                  2001c72c    00000040     (.common:uartCC3200RingBuffer)
                  2001c76c    00000030     (.common:wiFiCC3200Objects)
                  2001c79c    00000024     simplelink_func.obj (.bss:g_ucConnectionSSID)
                  2001c7c0    00000020     (.common:pwmTimerCC3200Objects)
                  2001c7e0    0000001c     (.common:semStruct_ReadWrite)
                  2001c7fc    00000014     CDIO_CC3200.obj (.bss:orderToWorkTask)
                  2001c810    00000014     (.common:powerNotifyObj)
                  2001c824    00000008     simplelink_func.obj (.bss:g_ucConnectionBSSID)
                  2001c82c    00000008     rtsv7M4_T_le_eabi.lib : trgdrv.obj (.bss:parmbuf)
                  2001c834    00000004     (.common:SimpleLinkSpawnTaskHndl)
                  2001c838    00000008     (.common:firstRTC$1)
                  2001c840    00000008     (.common:spiCC3200DMAscratchBuf)
                  2001c848    00000008     (.common:steps)
                  2001c850    00000004     (.common:firstTick$2)
                  2001c854    00000004     (.common:semHandle_ReadWrite)
                  2001c858    00000004     (.common:simpleLink_mailbox)
                  2001c85c    00000001     (.common:RxIrqCnt)

.text      0    2001c860    0000f4da     
                  2001c860    000010fc     rtsv7M4_T_le_eabi.lib : _printfi.obj (.text)
                  2001d95c    00000fc4     webclient.a : httpcli.obj (.text)
                  2001e920    00000430     sysbios.aem4 : BIOS.obj (.text:ti_sysbios_family_arm_m3_Hwi_excDumpRegs__I)
                  2001ed50    0000040c     simplelink_func.obj (.text:fetchAndParseData)
                  2001f15c    000003b0     simplelink_func.obj (.text:ConfigureSimpleLinkToDefaultState)
                  2001f50c    0000039a     cc3x00_host_driver.aem4 : driver.oem4 (.text:_SlDrvMsgRead)
                  2001f8a6    00000002     drivers_cc32xxware.aem4 : SPICC3200DMA.oem4 (.text:SPICC3200DMA_serviceISR)
                  2001f8a8    00000378     CDIO_CC3200.obj (.text:moveTask)
                  2001fc20    0000034c     ti.targets.arm.rtsarm.aem4 : System.oem4 (.text:xdc_runtime_System_doPrint__I)
                  2001ff6c    00000324     rtsv7M4_T_le_eabi.lib : trgdrv.obj (.text)
                  20020290    000002ea     webclient.a : ssock.obj (.text)
                  2002057a    00000006     drivers_cc32xxware.aem4 : PWMTimerCC3200.oem4 (.text:PWMTimerCC3200_getPeriodMicroSecs)
                  20020580    000002c0     sysbios.aem4 : BIOS.obj (.text:ti_sysbios_knl_Semaphore_pend__E)
                  20020840    00000254                  : BIOS.obj (.text:ti_sysbios_heaps_HeapMem_free__E)
                  20020a94    00000004     tirtosport.aem4 : ClockP_tirtos.oem4 (.text:ClockP_getCpuFreq)
                  20020a98    00000248     sysbios.aem4 : BIOS.obj (.text:ti_sysbios_heaps_HeapMem_alloc__E)
                  20020ce0    0000022c                  : BIOS.obj (.text:ti_sysbios_knl_Task_Instance_finalize__E)
                  20020f0c    00000208     drivers_cc32xxware.aem4 : UARTCC3200.oem4 (.text:UARTCC3200_open)
                  20021114    00000004     tirtosport.aem4 : HwiP_tirtos.oem4 (.text:HwiP_clearInterrupt)
                  20021118    000001fc     sysbios.aem4 : BIOS.obj (.text:ti_sysbios_family_arm_m3_Hwi_excHandlerMax__I)
                  20021314    000001f4     rtsv7M4_T_le_eabi.lib : ull_div_t2.obj (.text)
                  20021508    000001e0     sysbios.aem4 : BIOS.obj (.text:ti_sysbios_knl_Task_sleep__E)
                  200216e8    000001d4     simplelink_func.obj (.text:SimpleLinkWlanEventHandler)
                  200218bc    00000004     tirtosport.aem4 : HwiP_tirtos.oem4 (.text:HwiP_disable)
                  200218c0    000001c8     sysbios.aem4 : BIOS.obj (.text:ti_sysbios_knl_Task_Instance_init__E)
                  20021a88    000001b6     rtsv7M4_T_le_eabi.lib : fd_add_t2.obj (.text)
                  20021c3e    00000002     drivers_cc32xxware.aem4 : SPICC3200DMA.oem4 (.text:SPICC3200DMA_transferCancel)
                  20021c40    000001a8     cc3x00_host_driver.aem4 : wlan.oem4 (.text:sl_WlanConnect)
                  20021de8    000001a4     CDIO_CC3200.obj (.text:move)
                  20021f8c    00000188     power_cc3200_tirtos.aem4 : PowerCC3200_tirtos.oem4 (.text:PowerCC3200_sleepPolicy)
                  20022114    0000017c     drivers_cc32xxware.aem4 : GPIOCC3200.oem4 (.text:GPIO_setConfig)
                  20022290    00000174     sysbios.aem4 : BIOS.obj (.text:ti_sysbios_family_arm_m3_Hwi_excBusFault__I)
                  20022404    00000168     CDIO_CC3200.obj (.text:main)
                  2002256c    00000004     drivers_cc32xxware.aem4 : List.oem4 (.text:List_head)
                  20022570    00000164     sysbios.aem4 : BIOS.obj (.text:ti_sysbios_family_arm_m3_Hwi_excUsageFault__I)
                  200226d4    00000004     drivers_cc32xxware.aem4 : List.oem4 (.text:List_next)
                  200226d8    00000158     sysbios.aem4 : BIOS.obj (.text:ti_sysbios_knl_Mailbox_Instance_init__E)
                  20022830    00000154     drivers_cc32xxware.aem4 : SPICC3200DMA.oem4 (.text:SPICC3200DMA_transfer)
                  20022984    00000150     cc3x00_host_driver.aem4 : driver.oem4 (.text:_SlDrvRxHdrRead)
                  20022ad4    00000004     drivers_wifi_cc32xxware.aem4 : osi_tirtos.oem4 (.text:mem_Malloc)
                  20022ad8    00000148     sysbios.aem4 : BIOS.obj (.text:ti_sysbios_family_arm_m3_Hwi_excMemFault__I)
                  20022c20    0000013c                  : BIOS.obj (.text:ti_sysbios_heaps_HeapMem_Instance_init__E)
                  20022d5c    00000136     rtsv7M4_T_le_eabi.lib : fd_div_t2.obj (.text)
                  20022e92    00000002                           : i_div0.obj (.text)
                  20022e94    00000134     driverlib.a : prcm.obj (.text:PRCMCC3200MCUInit)
                  20022fc8    00000124     drivers_cc32xxware.aem4 : SPICC3200DMA.oem4 (.text:SPICC3200DMA_open)
                  200230ec    00000120     simplelink_func.obj (.text:flushHTTPResponse)
                  2002320c    0000011c     CDIO_CC3200.obj (.text:dataTask)
                  20023328    0000011c     sysbios.aem4 : BIOS.obj (.text:ti_sysbios_knl_Clock_Instance_init__E)
                  20023444    00000118     cc3x00_host_driver.aem4 : driver.oem4 (.text:_SlDrvMsgWrite)
                  2002355c    00000118     ti.targets.arm.rtsarm.aem4 : Error.oem4 (.text:xdc_runtime_Error_policyDefault__E)
                  20023674    00000114     rtsv7M4_T_le_eabi.lib : strtoul.obj (.text)
                  20023788    0000010c     simplelink_func.obj (.text:SimpleLinkNetAppEventHandler)
                  20023894    00000102     rom_pin_mux_config.obj (.text:PinMuxConfig)
                  20023996    00000002     CDIO_CC3200_pem4.oem4 (.text:ti_sysbios_BIOS_nullFunc__I)
                  20023998    00000100     ti.targets.arm.rtsarm.aem4 : Core-mem.oem4 (.text:xdc_runtime_Core_createObject__I)
                  20023a98    000000fd     simplelink_func.obj (.text:SimpleLinkSockEventHandler)
                  20023b95    00000001     --HOLE-- [fill = 0]
                  20023b96    000000fc     rtsv7M4_T_le_eabi.lib : fd_mul_t2.obj (.text)
                  20023c92    00000002     CDIO_CC3200_pem4.oem4 (.text:xdc_runtime_Startup_reset__I)
                  20023c94    000000f8     ti.targets.arm.rtsarm.aem4 : Startup.oem4 (.text:xdc_runtime_Startup_startMods__I)
                  20023d8c    000000f8     CDIO_CC3200_pem4.oem4 (.text:xdc_runtime_System_printfExtend__I)
                  20023e84    000000f0     driverlib.a : udma.obj (.text:uDMAChannelTransferSet)
                  20023f74    000000ec     cc3x00_host_driver.aem4 : driver.oem4 (.text:_SlDrvDriverCBInit)
                  20024060    000000ec     sysbios.aem4 : BIOS.obj (.text:ti_sysbios_knl_Semaphore_post__E)
                  2002414c    000000e0     drivers_cc32xxware.aem4 : PWMTimerCC3200.oem4 (.text:PWMTimerCC3200_open)
                  2002422c    000000e0     cc3x00_host_driver.aem4 : driver.oem4 (.text:_SlDrvDataReadOp)
                  2002430c    000000d8     drivers_cc32xxware.aem4 : SPICC3200DMA.oem4 (.text:configDMA)
                  200243e4    000000d0     cc3x00_host_driver.aem4 : driver.oem4 (.text:_SlDrvWaitForPoolObj)
                  200244b4    000000d0     drivers_cc32xxware.aem4 : GPIOCC3200.oem4 (.text:powerNotifyFxn)
                  20024584    000000d0     rtsv7M4_T_le_eabi.lib : s_scalbn.obj (.text)
                  20024654    000000d0     sysbios.aem4 : m3_Hwi_asm.obj (.text:ti_sysbios_family_arm_m3_Hwi_dispatch__I)
                  20024724    000000cc     ti.targets.arm.rtsarm.aem4 : Core-smem.oem4 (.text:xdc_runtime_Core_constructObject__I)
                  200247f0    000000c8     cc3x00_host_driver.aem4 : driver.oem4 (.text:_SlDrvReleasePoolObj)
                  200248b8    000000bc     sysbios.aem4 : BIOS.obj (.text:ti_sysbios_family_arm_m3_Hwi_excDebugMon__I)
                  20024974    00000004     CDIO_CC3200_pem4.oem4 (.text:ti_sysbios_BIOS_RtsGateProxy_enter__E)
                  20024978    000000bc     sysbios.aem4 : BIOS.obj (.text:ti_sysbios_family_arm_m3_Hwi_excHardFault__I)
                  20024a34    000000b8     drivers_cc32xxware.aem4 : PWMTimerCC3200.oem4 (.text:PWMTimerCC3200_setDuty)
                  20024aec    000000b8     cc3x00_host_driver.aem4 : netapp.oem4 (.text:sl_NetAppDnsGetHostByName)
                  20024ba4    000000b8     simplelink_func.obj (.text:wlanConnect)
                  20024c5c    000000b4     cc3x00_host_driver.aem4 : netapp.oem4 (.text:_SlDrvNetAppEventHandler)
                  20024d10    000000b4     sysbios.aem4 : BIOS.obj (.text:ti_sysbios_gates_GateMutex_enter__E)
                  20024dc4    00000004     CDIO_CC3200_pem4.oem4 (.text:ti_sysbios_BIOS_RtsGateProxy_leave__E)
                  20024dc8    000000b4     sysbios.aem4 : BIOS.obj (.text:ti_sysbios_knl_Task_checkStacks__E)
                  20024e7c    000000b0     cc3x00_host_driver.aem4 : socket.oem4 (.text:sl_Connect)
                  20024f2c    000000ac                             : driver.oem4 (.text:_SlDrvDataWriteOp)
                  20024fd8    000000aa     uart_if.obj (.text:Report)
                  20025082    000000a8     simplelink_func.obj (.text:charToInt)
                  2002512a    00000006     drivers_cc32xxware.aem4 : SPICC3200DMA.oem4 (.text:SPICC3200DMA_control)
                  20025130    000000a8     sysbios.aem4 : BIOS.obj (.text:ti_sysbios_knl_Task_postInit__I)
                  200251d8    000000a4     cc3x00_host_driver.aem4 : socket.oem4 (.text:sl_Send)
                  2002527c    00000004     CDIO_CC3200_pem4.oem4 (.text:ti_sysbios_family_arm_m3_Hwi_destruct)
                  20025280    000000a4     sysbios.aem4 : BIOS.obj (.text:ti_sysbios_knl_Clock_Instance_finalize__E)
                  20025324    000000a2     drivers_cc32xxware.aem4 : UARTCC3200.oem4 (.text:UARTCC3200_write)
                  200253c6    00000002     --HOLE-- [fill = 0]
                  200253c8    000000a0     driverlib.a : spi.obj (.text:SPIConfigSetExpClk)
                  20025468    000000a0     auto_init.aem4 : auto_init.oem4 (.text)
                  20025508    000000a0     ti.targets.arm.rtsarm.aem4 : Text.oem4 (.text:xdc_runtime_Text_putMod__E)
                  200255a8    0000009e     drivers_cc32xxware.aem4 : UARTCC3200.oem4 (.text:readTaskBlocking)
                  20025646    0000009c     rtsv7M4_T_le_eabi.lib : memcpy_t2.obj (.text)
                  200256e2    00000006     driverlib.a : utils.obj (.text:UtilsDelay)
                  200256e8    0000009c     sysbios.aem4 : BIOS.obj (.text:ti_sysbios_knl_Semaphore_Instance_init__E)
                  20025784    0000009a     ti.targets.arm.rtsarm.aem4 : Text.oem4 (.text:xdc_runtime_Text_putSite__E)
                  2002581e    00000098     drivers_cc32xxware.aem4 : UARTCC3200.oem4 (.text:UARTCC3200_control)
                  200258b6    00000098                             : UARTCC3200.oem4 (.text:UARTCC3200_readPolling)
                  2002594e    00000002     --HOLE-- [fill = 0]
                  20025950    00000098     cc3x00_host_driver.aem4 : driver.oem4 (.text:_SlDrvMsgReadCmdCtx)
                  200259e8    00000098                             : device.oem4 (.text:sl_Stop)
                  20025a80    00000098     sysbios.aem4 : BIOS.obj (.text:ti_sysbios_knl_Mailbox_post__E)
                  20025b18    00000094     driverlib.a : prcm.obj (.text:PRCMPeripheralClockGet)
                  20025bac    00000094     cc3x00_host_driver.aem4 : driver.oem4 (.text:_SlFindAndSetActiveObj)
                  20025c40    00000094     drivers_cc32xxware.aem4 : SPICC3200DMA.oem4 (.text:initHw)
                  20025cd4    00000004     CDIO_CC3200_pem4.oem4 (.text:ti_sysbios_family_arm_m3_TaskSupport_Module__startupDone__S)
                  20025cd8    00000094     sysbios.aem4 : BIOS.obj (.text:ti_sysbios_family_arm_m3_Hwi_Instance_init__E)
                  20025d6c    00000090     cc3x00_host_driver.aem4 : driver.oem4 (.text:_SlDrvDriverCBDeinit)
                  20025dfc    00000090     drivers_cc32xxware.aem4 : PowerCC3200.oem4 (.text:restoreNVICRegs)
                  20025e8c    00000090     cc3x00_host_driver.aem4 : device.oem4 (.text:sl_Start)
                  20025f1c    00000004     CDIO_CC3200_pem4.oem4 (.text:ti_sysbios_heaps_HeapMem_Module_GateProxy_enter__E)
                  20025f20    0000008c     sysbios.aem4 : BIOS.obj (.text:ti_sysbios_knl_Mailbox_pend__E)
                  20025fac    0000008a     drivers_cc32xxware.aem4 : UARTCC3200.oem4 (.text:readIsrTextBlocking)
                  20026036    00000002     --HOLE-- [fill = 0]
                  20026038    00000088     driverlib.a : pin.obj (.text:PinConfigSet)
                  200260c0    00000088     drivers_cc32xxware.aem4 : UARTCC3200.oem4 (.text:UARTCC3200_close)
                  20026148    00000088     rtsv7M4_T_le_eabi.lib : vsnprintf.obj (.text)
                  200261d0    00000088     drivers_cc32xxware.aem4 : SPICC3200DMA.oem4 (.text:spiHwiFxn)
                  20026258    00000088     sysbios.aem4 : BIOS.obj (.text:ti_sysbios_family_arm_m3_Hwi_initNVIC__E)
                  200262e0    00000088                  : BIOS.obj (.text:ti_sysbios_knl_Mailbox_Module_startup__E)
                  20026368    00000086     rtsv7M4_T_le_eabi.lib : fd_cmp_t2.obj (.text:__aeabi_cdcmple)
                  200263ee    00000086                           : fd_cmp_t2.obj (.text:__aeabi_cdrcmple)
                  20026474    00000084     drivers_cc32xxware.aem4 : GPIOCC3200.oem4 (.text:GPIO_init)
                  200264f8    00000084                             : PowerCC3200.oem4 (.text:saveNVICRegs)
                  2002657c    00000084     cc3x00_host_driver.aem4 : netapp.oem4 (.text:sl_NetAppMDNSRegisterUnregisterService)
                  20026600    00000084     sysbios.aem4 : BIOS.obj (.text:ti_sysbios_family_arm_m3_Hwi_postInit__I)
                  20026684    00000082     driverlib.a : gpio.obj (.text:GPIOIntTypeSet)
                  20026706    00000082     drivers_cc32xxware.aem4 : UARTCC3200.oem4 (.text:readIsrTextCallback)
                  20026788    00000080     drivers_wifi_cc32xxware.aem4 : WiFiCC3200.oem4 (.text:WiFiCC3200_open)
                  20026808    0000007c     driverlib.a : spi.obj (.text:SPIIntStatus)
                  20026884    0000007a     drivers_cc32xxware.aem4 : UARTCC3200.oem4 (.text:readTaskCallback)
                  200268fe    0000007a     rtsv7M4_T_le_eabi.lib : memset_t2.obj (.text)
                  20026978    00000078     drivers_wifi_cc32xxware.aem4 : osi_tirtos.oem4 (.text:VStartSimpleLinkSpawnTask)
                  200269f0    00000078     cc3x00_host_driver.aem4 : device.oem4 (.text:sl_DevGet)
                  20026a68    00000078     simplelink_func.obj (.text:wlanStart)
                  20026ae0    00000076     driverlib.a : uart.obj (.text:UARTConfigSetExpClk)
                  20026b56    00000002     --HOLE-- [fill = 0]
                  20026b58    00000074     cc3x00_host_driver.aem4 : driver.oem4 (.text:_SlDrvClassifyRxMsg)
                  20026bcc    00000004     CDIO_CC3200_pem4.oem4 (.text:ti_sysbios_heaps_HeapMem_Module_GateProxy_leave__E)
                  20026bd0    00000074     sysbios.aem4 : BIOS.obj (.text:ti_sysbios_knl_Clock_start__E)
                  20026c44    00000070     drivers_cc32xxware.aem4 : PWMTimerCC3200.oem4 (.text:PWMTimerCC3200_control)
                  20026cb4    00000070                             : PowerCC3200.oem4 (.text:Power_sleep)
                  20026d24    00000070     cc3x00_host_driver.aem4 : driver.oem4 (.text:_SlDrvCmdOp)
                  20026d94    00000004     CDIO_CC3200_pem4.oem4 (.text:ti_sysbios_knl_Clock_TimerProxy_getMaxTicks__E)
                  20026d98    00000070     sysbios.aem4 : BIOS.obj (.text:ti_sysbios_knl_Mailbox_Instance_finalize__E)
                  20026e08    0000006d     ti.targets.arm.rtsarm.aem4 : System.oem4 (.text:xdc_runtime_System_formatNum__I)
                  20026e75    00000003     --HOLE-- [fill = 0]
                  20026e78    0000006c     cc3x00_host_driver.aem4 : driver.oem4 (.text:_SlDrvMsgReadSpawnCtx)
                  20026ee4    0000006c     drivers_cc32xxware.aem4 : UARTCC3200.oem4 (.text:initHw)
                  20026f50    0000006c     sysbios.aem4 : BIOS.obj (.text:ti_sysbios_knl_Clock_workFunc__E)
                  20026fbc    00000004     CDIO_CC3200_pem4.oem4 (.text:ti_sysbios_knl_Clock_TimerProxy_setPeriodMicroSecs__E)
                  20026fc0    0000006c     sysbios.aem4 : BIOS.obj (.text:ti_sysbios_knl_Swi_restoreHwi__E)
                  2002702c    00000004     CDIO_CC3200_pem4.oem4 (.text:ti_sysbios_knl_Clock_TimerProxy_start__E)
                  20027030    0000006c     sysbios.aem4 : BIOS.obj (.text:ti_sysbios_knl_Task_exit__E)
                  2002709c    0000006c     simplelink_func.obj (.text:unPackData)
                  20027108    0000006c     ti.targets.arm.rtsarm.aem4 : Error.oem4 (.text:xdc_runtime_Error_print__E)
                  20027174    0000006c                                : Memory.oem4 (.text:xdc_runtime_Memory_alloc__E)
                  200271e0    0000006a     rtsv7M4_T_le_eabi.lib : copy_decompress_rle.obj (.text)
                  2002724a    00000002     --HOLE-- [fill = 0]
                  2002724c    00000068     driverlib.a : prcm.obj (.text:PRCMHibernateWakeUpGPIOSelect)
                  200272b4    00000068     rtsv7M4_T_le_eabi.lib : trgmsg.obj (.text)
                  2002731c    00000068     simplelink_func.obj (.text:setupHTTPConnection)
                  20027384    00000068     drivers_wifi_cc32xxware.aem4 : WiFiCC3200.oem4 (.text:spi_Read)
                  200273ec    00000068                                  : WiFiCC3200.oem4 (.text:spi_Write)
                  20027454    00000068     drivers_cc32xxware.aem4 : UARTCC3200.oem4 (.text:writeData)
                  200274bc    00000066     ti.targets.arm.rtsarm.aem4 : Core-mem.oem4 (.text:xdc_runtime_Core_deleteObject__I)
                  20027522    00000002     --HOLE-- [fill = 0]
                  20027524    00000064     drivers_cc32xxware.aem4 : GPIOCC3200.oem4 (.text:GPIO_hwiIntFxn)
                  20027588    00000064     cc3x00_host_driver.aem4 : netapp.oem4 (.text:_sl_HandleAsync_DnsGetHostByName)
                  200275ec    00000004     CDIO_CC3200_pem4.oem4 (.text:ti_sysbios_knl_Clock_TimerProxy_stop__E)
                  200275f0    00000064     sysbios.aem4 : BIOS.obj (.text:ti_sysbios_family_arm_m3_Hwi_dispatchC__I)
                  20027654    00000064     CDIO_CC3200_pem4.oem4 (.text:ti_sysbios_knl_Mailbox_create)
                  200276b8    00000064     driverlib.a : udma.obj (.text:uDMAChannelAttributeDisable)
                  2002771c    00000062     tirtosport.aem4 : HwiP_tirtos.oem4 (.text:HwiP_create)
                  2002777e    00000002     --HOLE-- [fill = 0]
                  20027780    00000060     cc3x00_host_driver.aem4 : netapp.oem4 (.text:_sl_HandleAsync_DnsGetHostByService)
                  200277e0    00000060                             : device.oem4 (.text:_sl_HandleAsync_InitComplete)
                  20027840    00000060                             : netapp.oem4 (.text:_sl_HandleAsync_PingResponse)
                  200278a0    00000060     sysbios.aem4 : BIOS.obj (.text:ti_sysbios_knl_Task_schedule__I)
                  20027900    0000005e     drivers_cc32xxware.aem4 : UARTCC3200.oem4 (.text:readIsrBinaryBlocking)
                  2002795e    00000002     --HOLE-- [fill = 0]
                  20027960    0000005c     rtsv7M4_T_le_eabi.lib : s_frexp.obj (.text)
                  200279bc    00000004     CDIO_CC3200_pem4.oem4 (.text:ti_sysbios_knl_Clock_destruct)
                  200279c0    0000005c     sysbios.aem4 : BIOS.obj (.text:ti_sysbios_knl_Swi_run__I)
                  20027a1c    00000004     CDIO_CC3200_pem4.oem4 (.text:ti_sysbios_knl_Mailbox_delete)
                  20027a20    0000005c     sysbios.aem4 : BIOS.obj (.text:ti_sysbios_knl_Swi_schedule__I)
                  20027a7c    00000004     CDIO_CC3200_pem4.oem4 (.text:ti_sysbios_knl_Queue_destruct)
                  20027a80    0000005c     sysbios.aem4 : BIOS.obj (.text:ti_sysbios_knl_Task_Module_startup__E)
                  20027adc    0000005c     CDIO_CC3200_pem4.oem4 (.text:ti_sysbios_knl_Task_create)
                  20027b38    0000005c     sysbios.aem4 : BIOS.obj (.text:ti_sysbios_knl_Task_startCore__E)
                  20027b94    0000005b     ti.targets.arm.rtsarm.aem4 : Text.oem4 (.text:xdc_runtime_Text_putLab__E)
                  20027bef    00000001     --HOLE-- [fill = 0]
                  20027bf0    0000005a     tirtosport.aem4 : ClockP_tirtos.oem4 (.text:ClockP_create)
                  20027c4a    0000005a     drivers_cc32xxware.aem4 : SPICC3200DMA.oem4 (.text:SPICC3200DMA_close)
                  20027ca4    00000058     driverlib.a : interrupt.obj (.text:IntPendClear)
                  20027cfc    00000058                 : prcm.obj (.text:PRCMPeripheralReset)
                  20027d54    00000058     drivers_cc32xxware.aem4 : PowerCC3200.oem4 (.text:Power_init)
                  20027dac    00000058     tirtosport.aem4 : SemaphoreP_tirtos.oem4 (.text:SemaphoreP_create)
                  20027e04    00000058     cc3x00_host_driver.aem4 : driver.oem4 (.text:_SlDrvCmdSend)
                  20027e5c    00000058                             : netapp.oem4 (.text:_sl_NetAppSendTokenValue)
                  20027eb4    00000058     CDIO_CC3200_pem4.oem4 (.text:ti_sysbios_family_arm_m3_Hwi_construct)
                  20027f0c    00000056     rtsv7M4_T_le_eabi.lib : ltoa.obj (.text)
                  20027f62    00000002     --HOLE-- [fill = 0]
                  20027f64    00000054     CC3200_LAUNCHXL.obj (.text:CC3200_LAUNCHXL_initDMA)
                  20027fb8    00000054     drivers_cc32xxware.aem4 : UARTCC3200.oem4 (.text:UARTCC3200_writeCancel)
                  2002800c    00000054                             : UARTCC3200.oem4 (.text:readIsrBinaryCallback)
                  20028060    00000054     rtsv7M4_T_le_eabi.lib : exit.obj (.text)
                  200280b4    00000054     cc3x00_host_driver.aem4 : socket.oem4 (.text:sl_SetSockOpt)
                  20028108    00000054     sysbios.aem4 : BIOS.obj (.text:ti_sysbios_family_arm_m3_Timer_setPeriod__E)
                  2002815c    00000004     CDIO_CC3200_pem4.oem4 (.text:ti_sysbios_knl_Semaphore_delete)
                  20028160    00000054     sysbios.aem4 : BIOS.obj (.text:ti_sysbios_family_arm_m3_Timer_start__E)
                  200281b4    00000054     CDIO_CC3200_pem4.oem4 (.text:ti_sysbios_knl_Task_construct)
                  20028208    00000054     ti.targets.arm.rtsarm.aem4 : Assert.oem4 (.text:xdc_runtime_Assert_raise__I)
                  2002825c    00000050     drivers_wifi_cc32xxware.aem4 : WiFiCC3200.oem4 (.text:CC3X00_NWP_enablePreamble)
                  200282ac    00000050     cc3x00_host_driver.aem4 : socket.oem4 (.text:_sl_HandleAsync_Connect)
                  200282fc    00000050                             : netcfg.oem4 (.text:sl_NetCfgSet)
                  2002834c    00000050                             : wlan.oem4 (.text:sl_WlanSet)
                  2002839c    00000004     CDIO_CC3200_pem4.oem4 (.text:ti_sysbios_knl_Semaphore_destruct)
                  200283a0    00000050     sysbios.aem4 : BIOS.obj (.text:ti_sysbios_family_arm_m3_Hwi_Module_startup__E)
                  200283f0    00000050     ti.targets.arm.rtsarm.aem4 : Startup.oem4 (.text:xdc_runtime_Startup_exec__E)
                  20028440    00000050                                : Text.oem4 (.text:xdc_runtime_Text_visitRope2__I)
                  20028490    0000004c     gpio_if.obj (.text:GPIO_IF_GetPortNPin)
                  200284dc    0000004c     drivers_cc32xxware.aem4 : GPIOCC3200.oem4 (.text:GPIO_setCallback)
                  20028528    0000004c     driverlib.a : spi.obj (.text:SPIIntDisable)
                  20028574    0000004c                 : spi.obj (.text:SPIIntEnable)
                  200285c0    0000004c     cc3x00_host_driver.aem4 : device.oem4 (.text:_SlDrvDeviceEventHandler)
                  2002860c    0000004c                             : socket.oem4 (.text:_sl_HandleAsync_Accept)
                  20028658    0000004c     rtsv7M4_T_le_eabi.lib : atoi.obj (.text)
                  200286a4    0000004c                           : cpy_tbl.obj (.text)
                  200286f0    0000004c     sysbios.aem4 : m3_TaskSupport_asm.obj (.text:ti_sysbios_family_arm_m3_TaskSupport_buildTaskStack)
                  2002873c    00000004     CDIO_CC3200_pem4.oem4 (.text:ti_sysbios_knl_Task_delete)
                  20028740    0000004c     sysbios.aem4 : BIOS.obj (.text:ti_sysbios_family_arm_m3_Timer_setPeriodMicroSecs__E)
                  2002878c    00000004     ti.targets.arm.rtsarm.aem4 : Error.oem4 (.text:xdc_runtime_Error_getSite__E)
                  20028790    0000004c     sysbios.aem4 : BIOS.obj (.text:ti_sysbios_heaps_HeapMem_getStats__E)
                  200287dc    00000004     CDIO_CC3200_pem4.oem4 (.text:xdc_runtime_System_Module_GateProxy_enter__E)
                  200287e0    0000004c     sysbios.aem4 : BIOS.obj (.text:ti_sysbios_knl_Swi_runLoop__I)
                  2002882c    00000004     CDIO_CC3200_pem4.oem4 (.text:xdc_runtime_System_Module_GateProxy_leave__E)
                  20028830    0000004c     sysbios.aem4 : BIOS.obj (.text:ti_sysbios_knl_Task_allBlockedFunction__I)
                  2002887c    0000004c     driverlib.a : udma.obj (.text:uDMAChannelAssign)
                  200288c8    00000048                 : flash.obj (.text:FlashDisable)
                  20028910    00000048                 : prcm.obj (.text:PRCMHibernateWakeupSourceEnable)
                  20028958    00000048                 : pin.obj (.text:PinConfigGet)
                  200289a0    00000048                 : spi.obj (.text:SPIIntClear)
                  200289e8    00000048     cc3x00_host_driver.aem4 : driver.oem4 (.text:_SlRemoveFromList)
                  20028a30    00000048     CDIO_CC3200.obj (.text:moveToOrigin)
                  20028a78    00000048     drivers_cc32xxware.aem4 : PowerCC3200.oem4 (.text:notify)
                  20028ac0    00000048     rtsv7M4_T_le_eabi.lib : fd_toi_t2.obj (.text)
                  20028b08    00000048     cc3x00_host_driver.aem4 : socket.oem4 (.text:sl_Recv)
                  20028b50    00000048     sysbios.aem4 : BIOS.obj (.text:ti_sysbios_family_arm_m3_Hwi_disableInterrupt__E)
                  20028b98    00000048                  : BIOS.obj (.text:ti_sysbios_family_arm_m3_Hwi_enableInterrupt__E)
                  20028be0    00000048                  : BIOS.obj (.text:ti_sysbios_family_arm_m3_Hwi_excReserved__I)
                  20028c28    00000048                  : m3_Hwi_asm_switch.obj (.text:ti_sysbios_family_arm_m3_Hwi_initStacks__E)
                  20028c70    00000048                  : BIOS.obj (.text:ti_sysbios_family_arm_m3_Timer_initDevice__I)
                  20028cb8    00000046     drivers_cc32xxware.aem4 : RingBuf.oem4 (.text:RingBuf_put)
                  20028cfe    00000046     ti.targets.arm.rtsarm.aem4 : Core-params.oem4 (.text:xdc_runtime_Core_assignParams__I)
                  20028d44    00000044     driverlib.a : prcm.obj (.text:PRCMLPDSEnter)
                  20028d88    00000044     drivers_cc32xxware.aem4 : PowerCC3200_asm.oem4 (.text:PowerCC3200_enterLPDS)
                  20028dcc    00000044     driverlib.a : spi.obj (.text:SPIDmaMaskGet)
                  20028e10    00000044     simplelink_func.obj (.text:SimpleLinkGeneralEventHandler)
                  20028e54    00000044     drivers_cc32xxware.aem4 : UARTCC3200.oem4 (.text:UARTCC3200_hwiIntFxn)
                  20028e98    00000044     cc3x00_host_driver.aem4 : driver.oem4 (.text:_SlAsyncEventGenericHandler)
                  20028edc    00000044     boot.aem4 : boot.oem4 (.text)
                  20028f20    00000044     cc3x00_host_driver.aem4 : wlan.oem4 (.text:sl_WlanPolicySet)
                  20028f64    00000004     ti.targets.arm.rtsarm.aem4 : System.oem4 (.text:xdc_runtime_System_aprintf_va__F)
                  20028f68    00000044     sysbios.aem4 : BIOS.obj (.text:ti_sysbios_family_arm_m3_Hwi_getStackInfo__E)
                  20028fac    00000004     ti.targets.arm.rtsarm.aem4 : System.oem4 (.text:xdc_runtime_System_printf_va__F)
                  20028fb0    00000044     sysbios.aem4 : BIOS.obj (.text:ti_sysbios_knl_Mailbox_postInit__I)
                  20028ff4    00000004     --HOLE-- [fill = 0]
                  20028ff8    00000044                  : BIOS.obj (.text:ti_sysbios_knl_Swi_post__E)
                  2002903c    00000044     ti.targets.arm.rtsarm.aem4 : Error.oem4 (.text:xdc_runtime_Error_setX__E)
                  20029080    00000044                                : SysMin.oem4 (.text:xdc_runtime_SysMin_flush__E)
                  200290c4    00000044                                : Text.oem4 (.text:xdc_runtime_Text_xprintf__I)
                  20029108    00000042     drivers_cc32xxware.aem4 : PowerCC3200_asm.oem4 (.text:PowerCC3200_resumeLPDS)
                  2002914a    00000042                             : UARTCC3200.oem4 (.text:UARTCC3200_writePolling)
                  2002918c    00000040                             : GPIOCC3200.oem4 (.text:GPIO_enableInt)
                  200291cc    00000040     driverlib.a : pin.obj (.text:PinModeSet)
                  2002920c    00000040     drivers_cc32xxware.aem4 : PowerCC3200.oem4 (.text:Power_setDependency)
                  2002924c    00000040                             : RingBuf.oem4 (.text:RingBuf_get)
                  2002928c    00000040                             : UARTCC3200.oem4 (.text:UARTCC3200_read)
                  200292cc    00000040     cc3x00_host_driver.aem4 : driver.oem4 (.text:_SlDrvRxIrqHandler)
                  2002930c    00000040                             : socket.oem4 (.text:_sl_HandleAsync_Select)
                  2002934c    00000040     drivers_wifi_cc32xxware.aem4 : osi_tirtos.oem4 (.text:osi_LockObjLock)
                  2002938c    00000040                                  : osi_tirtos.oem4 (.text:osi_SyncObjCreate)
                  200293cc    00000040                                  : osi_tirtos.oem4 (.text:osi_SyncObjWait)
                  2002940c    00000040     rtsv7M4_T_le_eabi.lib : u_divt2.obj (.text)
                  2002944c    00000040     cc3x00_host_driver.aem4 : wlan.oem4 (.text:sl_WlanRxFilterSet)
                  2002948c    00000004     --HOLE-- [fill = 0]
                  20029490    00000040     sysbios.aem4 : BIOS.obj (.text:ti_sysbios_family_arm_m3_Timer_Module_startup__E)
                  200294d0    0000003e     CDIO_CC3200_pem4.oem4 (.text:realloc)
                  2002950e    00000002     --HOLE-- [fill = 0]
                  20029510    0000003c     driverlib.a : prcm.obj (.text:PRCMPeripheralClkEnable)
                  2002954c    0000003c                 : prcm.obj (.text:PRCMSlowClkCtrFastGet)
                  20029588    0000003c                 : pin.obj (.text:PinDirModeSet)
                  200295c4    0000003c     drivers_cc32xxware.aem4 : WiFi.oem4 (.text:WiFi_open)
                  20029600    0000003c     cc3x00_host_driver.aem4 : device.oem4 (.text:_sl_HandleAsync_Stop)
                  2002963c    0000003c     CDIO_CC3200.obj (.text:brytarIntX)
                  20029678    0000003c     CDIO_CC3200.obj (.text:brytarIntY)
                  200296b4    0000003c     simplelink_func.obj (.text:packData)
                  200296f0    0000003c     drivers_wifi_cc32xxware.aem4 : WiFiCC3200.oem4 (.text:spi_Open)
                  2002972c    00000004     --HOLE-- [fill = 0]
                  20029730    0000003c     sysbios.aem4 : BIOS.obj (.text:ti_sysbios_family_arm_m3_Hwi_excSvCall__I)
                  2002976c    00000004     --HOLE-- [fill = 0]
                  20029770    0000003c                  : BIOS.obj (.text:ti_sysbios_heaps_HeapMem_init__I)
                  200297ac    00000004     --HOLE-- [fill = 0]
                  200297b0    0000003c                  : BIOS.obj (.text:ti_sysbios_knl_Clock_walkQueuePeriodic__E)
                  200297ec    00000004     --HOLE-- [fill = 0]
                  200297f0    0000003c                  : BIOS.obj (.text:ti_sysbios_knl_Swi_restore__E)
                  2002982c    0000003c     driverlib.a : udma.obj (.text:uDMAChannelControlSet)
                  20029868    0000003a     gpio_if.obj (.text:GPIO_IF_Set)
                  200298a2    00000002     --HOLE-- [fill = 0]
                  200298a4    00000038     driverlib.a : prcm.obj (.text:PRCMIntEnable)
                  200298dc    00000038     drivers_cc32xxware.aem4 : PWM.oem4 (.text:PWM_init)
                  20029914    00000038     power_cc3200_tirtos.aem4 : PowerCC3200_tirtos.oem4 (.text:PowerCC3200_initPolicy)
                  2002994c    00000038     drivers_cc32xxware.aem4 : SPI.oem4 (.text:SPI_init)
                  20029984    00000038                             : UART.oem4 (.text:UART_init)
                  200299bc    00000038                             : WiFi.oem4 (.text:WiFi_init)
                  200299f4    00000038     drivers_wifi_cc32xxware.aem4 : osi_tirtos.oem4 (.text:osi_LockObjCreate)
                  20029a2c    00000038     CDIO_CC3200.obj (.text:pwmDutyDown)
                  20029a64    00000038     cc3x00_host_driver.aem4 : socket.oem4 (.text:sl_Htonl)
                  20029a9c    00000038     drivers_cc32xxware.aem4 : SPICC3200DMA.oem4 (.text:spiPollingTransfer16)
                  20029ad4    00000038                             : SPICC3200DMA.oem4 (.text:spiPollingTransfer8)
                  20029b0c    00000004     --HOLE-- [fill = 0]
                  20029b10    00000038     sysbios.aem4 : BIOS.obj (.text:ti_sysbios_family_arm_m3_Hwi_excNoIsr__I)
                  20029b48    00000038                  : BIOS.obj (.text:ti_sysbios_knl_Task_processVitalTaskFlag__I)
                  20029b80    00000038     ti.targets.arm.rtsarm.aem4 : SysMin.oem4 (.text:xdc_runtime_SysMin_putch__E)
                  20029bb8    00000038                                : System.oem4 (.text:xdc_runtime_System_atexit__E)
                  20029bf0    00000036     driverlib.a : gpio.obj (.text:GPIODirModeSet)
                  20029c26    00000036                 : timer.obj (.text:TimerControlLevel)
                  20029c5c    00000036     drivers_cc32xxware.aem4 : UARTCC3200.oem4 (.text:UARTCC3200_readCancel)
                  20029c92    00000002     --HOLE-- [fill = 0]
                  20029c94    00000034     drivers_wifi_cc32xxware.aem4 : WiFiCC3200.oem4 (.text:CC3X00_NWP_disable)
                  20029cc8    00000034     driverlib.a : prcm.obj (.text:PRCMPeripheralStatusGet)
                  20029cfc    00000034                 : prcm.obj (.text:PRCMSRAMRetentionEnable)
                  20029d30    00000034     drivers_cc32xxware.aem4 : PowerCC3200.oem4 (.text:Power_releaseDependency)
                  20029d64    00000034     driverlib.a : spi.obj (.text:SPIFIFOLevelSet)
                  20029d98    00000034     cc3x00_host_driver.aem4 : driver.oem4 (.text:_SlDrvBasicCmd)
                  20029dcc    00000034                             : driver.oem4 (.text:_SlDrvProtectAsyncRespSetting)
                  20029e00    00000034     power_cc3200_tirtos.aem4 : PowerCC3200_tirtos.oem4 (.text:getCountsRTC)
                  20029e34    00000034     drivers_cc32xxware.aem4 : PWMTimerCC3200.oem4 (.text:getPowerMgrId)
                  20029e68    00000034                             : PowerCC3200.oem4 (.text:restorePeriphClocks)
                  20029e9c    00000034     cc3x00_host_driver.aem4 : socket.oem4 (.text:sl_Htons)
                  20029ed0    00000034     sysbios.aem4 : BIOS.obj (.text:ti_sysbios_family_arm_m3_Hwi_Instance_finalize__E)
                  20029f04    00000004     --HOLE-- [fill = 0]
                  20029f08    00000034                  : BIOS.obj (.text:ti_sysbios_family_arm_m3_Hwi_excNmi__I)
                  20029f3c    00000004     --HOLE-- [fill = 0]
                  20029f40    00000034                  : BIOS.obj (.text:ti_sysbios_family_arm_m3_Timer_periodicStub__I)
                  20029f74    00000004     --HOLE-- [fill = 0]
                  20029f78    00000034                  : BIOS.obj (.text:ti_sysbios_hal_Hwi_checkStack)
                  20029fac    00000034     CDIO_CC3200_pem4.oem4 (.text:ti_sysbios_knl_Clock_construct)
                  20029fe0    00000034     CDIO_CC3200_pem4.oem4 (.text:ti_sysbios_knl_Semaphore_create)
                  2002a014    00000034     ti.targets.arm.rtsarm.aem4 : Core-label.oem4 (.text:xdc_runtime_Core_assignLabel__I)
                  2002a048    00000033                                : Text.oem4 (.text:xdc_runtime_Text_printVisFxn__I)
                  2002a07b    00000001     --HOLE-- [fill = 0]
                  2002a07c    00000032     drivers_cc32xxware.aem4 : SPICC3200DMA.oem4 (.text:spiPollingTransfer32)
                  2002a0ae    00000002     --HOLE-- [fill = 0]
                  2002a0b0    00000032     sysbios.aem4 : BIOS.obj (.text:ti_sysbios_hal_Hwi_initStack)
                  2002a0e2    00000002     --HOLE-- [fill = 0]
                  2002a0e4    00000030     drivers_cc32xxware.aem4 : PWM.oem4 (.text:PWM_open)
                  2002a114    00000030     driverlib.a : pin.obj (.text:PinTypeGPIO)
                  2002a144    00000030     drivers_cc32xxware.aem4 : PowerCC3200.oem4 (.text:Power_releaseConstraint)
                  2002a174    00000030                             : PowerCC3200.oem4 (.text:Power_setConstraint)
                  2002a1a4    00000030                             : SPI.oem4 (.text:SPI_open)
                  2002a1d4    00000030     driverlib.a : uart.obj (.text:UARTDisable)
                  2002a204    00000030     drivers_cc32xxware.aem4 : UART.oem4 (.text:UART_open)
                  2002a234    00000030     drivers_wifi_cc32xxware.aem4 : WiFiCC3200.oem4 (.text:registerInterruptHandler)
                  2002a264    00000030     cc3x00_host_driver.aem4 : socket.oem4 (.text:sl_Socket)
                  2002a294    00000030     CDIO_CC3200_pem4.oem4 (.text:ti_sysbios_BIOS_atExitFunc__I)
                  2002a2c4    00000004     --HOLE-- [fill = 0]
                  2002a2c8    00000030     sysbios.aem4 : BIOS.obj (.text:ti_sysbios_family_arm_m3_TaskSupport_start__E)
                  2002a2f8    00000030     CDIO_CC3200_pem4.oem4 (.text:ti_sysbios_gates_GateHwi_Object__create__S)
                  2002a328    00000030     CDIO_CC3200_pem4.oem4 (.text:ti_sysbios_gates_GateMutex_Object__create__S)
                  2002a358    00000030     CDIO_CC3200_pem4.oem4 (.text:ti_sysbios_heaps_HeapMem_Object__create__S)
                  2002a388    00000030     CDIO_CC3200_pem4.oem4 (.text:ti_sysbios_knl_Semaphore_construct)
                  2002a3b8    00000030     sysbios.aem4 : BIOS.obj (.text:ti_sysbios_knl_Semaphore_pendTimeout__I)
                  2002a3e8    00000030                  : BIOS.obj (.text:ti_sysbios_knl_Task_unblockI__E)
                  2002a418    00000030     ti.targets.arm.rtsarm.aem4 : SysMin.oem4 (.text:xdc_runtime_SysMin_abort__E)
                  2002a448    00000030                                : System.oem4 (.text:xdc_runtime_System_processAtExit__E)
                  2002a478    0000002e     drivers_cc32xxware.aem4 : PWMTimerCC3200.oem4 (.text:PWMTimerCC3200_close)
                  2002a4a6    0000002e     CDIO_CC3200_pem4.oem4 (.text:malloc)
                  2002a4d4    0000002e     rtsv7M4_T_le_eabi.lib : i_tofd_t2.obj (.text)
                  2002a502    00000002     --HOLE-- [fill = 0]
                  2002a504    0000002c     drivers_wifi_cc32xxware.aem4 : WiFiCC3200.oem4 (.text:CC3X00_NWP_enable)
                  2002a530    0000002c     driverlib.a : prcm.obj (.text:PRCMLPDSIntervalSet)
                  2002a55c    0000002c                 : prcm.obj (.text:PRCMSysResetCauseGet)
                  2002a588    0000002c     CDIO_CC3200_pem4.oem4 (.text:ti_sysbios_knl_Clock_doTick__I)
                  2002a5b4    0000002c     CDIO_CC3200_pem4.oem4 (.text:ti_sysbios_knl_Queue_construct)
                  2002a5e0    0000002c     sysbios.aem4 : BIOS.obj (.text:ti_sysbios_knl_Task_restore__E)
                  2002a60c    0000002c     ti.targets.arm.rtsarm.aem4 : Text.oem4 (.text:xdc_runtime_Text_cordText__E)
                  2002a638    0000002a     driverlib.a : spi.obj (.text:SPIDataGetNonBlocking)
                  2002a662    0000002a                 : timer.obj (.text:TimerLoadSet)
                  2002a68c    0000002a                 : timer.obj (.text:TimerMatchSet)
                  2002a6b6    0000002a                 : timer.obj (.text:TimerPrescaleMatchSet)
                  2002a6e0    0000002a                 : timer.obj (.text:TimerPrescaleSet)
                  2002a70a    0000002a     cc3x00_host_driver.aem4 : socket.oem4 (.text:_sl_BuildAddress)
                  2002a734    0000002a     ti.targets.arm.rtsarm.aem4 : System.oem4 (.text:xdc_runtime_System_putchar__I)
                  2002a75e    00000002     --HOLE-- [fill = 0]
                  2002a760    00000028     uart_if.obj (.text:Message)
                  2002a788    00000028     driverlib.a : prcm.obj (.text:PRCMLPDSWakeupSourceEnable)
                  2002a7b0    00000028                 : prcm.obj (.text:PRCMPeripheralClkDisable)
                  2002a7d8    00000028     drivers_cc32xxware.aem4 : PowerCC3200.oem4 (.text:Power_registerNotify)
                  2002a800    00000028                             : UARTCC3200.oem4 (.text:releasePowerConstraint)
                  2002a828    00000028     sysbios.aem4 : BIOS.obj (.text:ti_sysbios_knl_Swi_Module_startup__E)
                  2002a850    00000028     driverlib.a : udma.obj (.text:uDMAChannelIsEnabled)
                  2002a878    00000026     drivers_cc32xxware.aem4 : List.oem4 (.text:List_put)
                  2002a89e    00000026     rtsv7M4_T_le_eabi.lib : strncmp.obj (.text)
                  2002a8c4    00000026     ti.targets.arm.rtsarm.aem4 : System.oem4 (.text:xdc_runtime_System_avprintf__E)
                  2002a8ea    00000002     --HOLE-- [fill = 0]
                  2002a8ec    00000024     driverlib.a : prcm.obj (.text:PRCMLPDSWakeUpGPIOSelect)
                  2002a910    00000024                 : uart.obj (.text:UARTCharPutNonBlocking)
                  2002a934    00000024                 : uart.obj (.text:UARTEnable)
                  2002a958    00000024     drivers_wifi_cc32xxware.aem4 : osi_tirtos.oem4 (.text:osi_Spawn)
                  2002a97c    00000024     cc3x00_host_driver.aem4 : socket.oem4 (.text:sl_Close)
                  2002a9a0    00000024                             : wlan.oem4 (.text:sl_WlanProfileDel)
                  2002a9c4    00000024                             : wlan.oem4 (.text:sl_WlanSetMode)
                  2002a9e8    00000024     CDIO_CC3200_pem4.oem4 (.text:ti_sysbios_BIOS_errorRaiseHook__I)
                  2002aa0c    00000024     CDIO_CC3200_pem4.oem4 (.text:ti_sysbios_BIOS_registerRTSLock__I)
                  2002aa30    00000024     CDIO_CC3200_pem4.oem4 (.text:ti_sysbios_BIOS_removeRTSLock__I)
                  2002aa54    00000024     CDIO_CC3200_pem4.oem4 (.text:ti_sysbios_BIOS_startFunc__I)
                  2002aa78    00000024     sysbios.aem4 : BIOS.obj (.text:ti_sysbios_family_arm_m3_Hwi_doTaskRestore__I)
                  2002aa9c    00000004     --HOLE-- [fill = 0]
                  2002aaa0    00000024                  : BIOS.obj (.text:ti_sysbios_family_arm_m3_Timer_startup__E)
                  2002aac4    00000024     CDIO_CC3200_pem4.oem4 (.text:ti_sysbios_gates_GateMutex_Object__delete__S)
                  2002aae8    00000024     sysbios.aem4 : BIOS.obj (.text:ti_sysbios_knl_Clock_Module_startup__E)
                  2002ab0c    00000024     CDIO_CC3200_pem4.oem4 (.text:ti_sysbios_knl_Semaphore_Object__delete__S)
                  2002ab30    00000024     ti.targets.arm.rtsarm.aem4 : System.oem4 (.text:xdc_runtime_System_vprintf__E)
                  2002ab54    00000022     driverlib.a : gpio.obj (.text:GPIOIntStatus)
                  2002ab76    00000022                 : spi.obj (.text:SPIReset)
                  2002ab98    00000022                 : spi.obj (.text:SPIWordCountSet)
                  2002abba    00000022     CDIO_CC3200_pem4.oem4 (.text:xdc_runtime_SysMin_output__I)
                  2002abdc    00000020     driverlib.a : gpio.obj (.text:GPIOPinWrite)
                  2002abfc    00000020                 : prcm.obj (.text:PRCMLPDSRestoreInfoSet)
                  2002ac1c    00000020     drivers_cc32xxware.aem4 : PowerCC3200.oem4 (.text:Power_idleFunc)
                  2002ac3c    00000020                             : PowerCC3200.oem4 (.text:Power_unregisterNotify)
                  2002ac5c    00000020     driverlib.a : spi.obj (.text:SPIDataGet)
                  2002ac7c    00000020     drivers_cc32xxware.aem4 : SPICC3200DMA.oem4 (.text:getPowerMgrId)
                  2002ac9c    00000020                             : UARTCC3200.oem4 (.text:getPowerMgrId)
                  2002acbc    00000020     CDIO_CC3200_pem4.oem4 (.text:ti_sysbios_BIOS_rtsLock__I)
                  2002acdc    00000004     --HOLE-- [fill = 0]
                  2002ace0    00000020     sysbios.aem4 : BIOS.obj (.text:ti_sysbios_family_arm_m3_Hwi_clearInterrupt__E)
                  2002ad00    00000020                  : m3_Hwi_asm.obj (.text:ti_sysbios_family_arm_m3_Hwi_excHandlerAsm__I)
                  2002ad20    00000020                  : BIOS.obj (.text:ti_sysbios_family_arm_m3_Hwi_excHandler__I)
                  2002ad40    00000020     CDIO_CC3200_pem4.oem4 (.text:ti_sysbios_gates_GateHwi_Object__delete__S)
                  2002ad60    00000020     CDIO_CC3200_pem4.oem4 (.text:ti_sysbios_heaps_HeapMem_Object__delete__S)
                  2002ad80    00000020     CDIO_CC3200_pem4.oem4 (.text:ti_sysbios_knl_Clock_Object__destruct__S)
                  2002ada0    00000020     sysbios.aem4 : BIOS.obj (.text:ti_sysbios_knl_Idle_run__E)
                  2002adc0    00000020     CDIO_CC3200_pem4.oem4 (.text:ti_sysbios_knl_Mailbox_Object__delete__S)
                  2002ade0    00000020     CDIO_CC3200_pem4.oem4 (.text:ti_sysbios_knl_Semaphore_Object__destruct__S)
                  2002ae00    00000020     CDIO_CC3200_pem4.oem4 (.text:ti_sysbios_knl_Task_Object__delete__S)
                  2002ae20    00000020     ti.targets.arm.rtsarm.aem4 : Registry.oem4 (.text:xdc_runtime_Registry_findById__E)
                  2002ae40    00000020                                : SysMin.oem4 (.text:xdc_runtime_SysMin_Module_startup__E)
                  2002ae60    0000001e     driverlib.a : spi.obj (.text:SPIDataPut)
                  2002ae7e    0000001e                 : timer.obj (.text:TimerDisable)
                  2002ae9c    0000001e                 : timer.obj (.text:TimerEnable)
                  2002aeba    0000001e                 : uart.obj (.text:UARTCharPut)
                  2002aed8    0000001e                 : uart.obj (.text:UARTIntStatus)
                  2002aef6    0000001e     drivers_wifi_cc32xxware.aem4 : WiFiCC3200.oem4 (.text:WiFiCC3200_close)
                  2002af14    0000001e     sysbios.aem4 : m3_Hwi_asm_switch.obj (.text:ti_sysbios_family_xxx_Hwi_switchAndRunFunc)
                  2002af32    00000002     --HOLE-- [fill = 0]
                  2002af34    0000001c     drivers_cc32xxware.aem4 : SPICC3200DMA.oem4 (.text:SPICC3200DMA_init)
                  2002af50    0000001c     driverlib.a : uart.obj (.text:UARTCharGetNonBlocking)
                  2002af6c    0000001c                 : uart.obj (.text:UARTFlowControlSet)
                  2002af88    0000001c     cc3x00_host_driver.aem4 : driver.oem4 (.text:_SlDrvProtectionObjLockWaitForever)
                  2002afa4    0000001c                             : socket.oem4 (.text:_sl_TruncatePayloadByProtocol)
                  2002afc0    0000001c     rtsv7M4_T_le_eabi.lib : memccpy.obj (.text)
                  2002afdc    0000001c     CDIO_CC3200_pem4.oem4 (.text:ti_sysbios_family_arm_m3_Hwi_Object__destruct__S)
                  2002aff8    0000001c     sysbios.aem4 : BIOS.obj (.text:ti_sysbios_family_arm_m3_Timer_stop__E)
                  2002b014    00000004     --HOLE-- [fill = 0]
                  2002b018    0000001c                  : BIOS.obj (.text:ti_sysbios_gates_GateMutex_Instance_init__E)
                  2002b034    0000001c     CDIO_CC3200_pem4.oem4 (.text:ti_sysbios_knl_Queue_Object__destruct__S)
                  2002b050    0000001c     sysbios.aem4 : BIOS.obj (.text:ti_sysbios_knl_Task_enter__I)
                  2002b06c    0000001c     driverlib.a : udma.obj (.text:uDMAChannelEnable)
                  2002b088    0000001c     drivers_wifi_cc32xxware.aem4 : osi_tirtos.oem4 (.text:vSimpleLinkSpawnTask)
                  2002b0a4    0000001c     ti.targets.arm.rtsarm.aem4 : Error.oem4 (.text:xdc_runtime_Error_raiseX__E)
                  2002b0c0    0000001c                                : Memory.oem4 (.text:xdc_runtime_Memory_valloc__E)
                  2002b0dc    0000001c                                : SysMin.oem4 (.text:xdc_runtime_SysMin_exit__E)
                  2002b0f8    0000001c                                : System.oem4 (.text:xdc_runtime_System_abort__E)
                  2002b114    0000001a     cc3x00_host_driver.aem4 : netapp.oem4 (.text:CopyPingResultsToReport)
                  2002b12e    0000001a     driverlib.a : gpio.obj (.text:GPIOIntEnable)
                  2002b148    0000001a     drivers_cc32xxware.aem4 : List.oem4 (.text:List_remove)
                  2002b162    0000001a     driverlib.a : pin.obj (.text:PinTypeTimer)
                  2002b17c    0000001a                 : spi.obj (.text:SPIDmaDisable)
                  2002b196    0000001a                 : spi.obj (.text:SPIDmaEnable)
                  2002b1b0    0000001a                 : spi.obj (.text:SPIFIFODisable)
                  2002b1ca    0000001a                 : spi.obj (.text:SPIFIFOEnable)
                  2002b1e4    0000001a     CDIO_CC3200_pem4.oem4 (.text:ti_sysbios_family_arm_m3_Hwi_Handle__label__S)
                  2002b1fe    0000001a     sysbios.aem4 : m3_Hwi_asm.obj (.text:ti_sysbios_family_arm_m3_Hwi_pendSV__I)
                  2002b218    0000001a     CDIO_CC3200_pem4.oem4 (.text:ti_sysbios_gates_GateHwi_Handle__label__S)
                  2002b232    0000001a     CDIO_CC3200_pem4.oem4 (.text:ti_sysbios_gates_GateMutex_Handle__label__S)
                  2002b24c    0000001a     CDIO_CC3200_pem4.oem4 (.text:ti_sysbios_heaps_HeapMem_Handle__label__S)
                  2002b266    0000001a     CDIO_CC3200_pem4.oem4 (.text:ti_sysbios_knl_Swi_Handle__label__S)
                  2002b280    0000001a     CDIO_CC3200_pem4.oem4 (.text:ti_sysbios_knl_Task_Handle__label__S)
                  2002b29a    0000001a     CDIO_CC3200_pem4.oem4 (.text:xdc_runtime_System_aprintf__E)
                  2002b2b4    0000001a     CDIO_CC3200_pem4.oem4 (.text:xdc_runtime_System_printf__E)
                  2002b2ce    00000002     --HOLE-- [fill = 0]
                  2002b2d0    00000018     CDIO_CC3200.obj (.text:InsertPenInt)
                  2002b2e8    00000018     driverlib.a : spi.obj (.text:SPICSDisable)
                  2002b300    00000018                 : spi.obj (.text:SPICSEnable)
                  2002b318    00000018                 : spi.obj (.text:SPIDisable)
                  2002b330    00000018                 : spi.obj (.text:SPIEnable)
                  2002b348    00000018                 : uart.obj (.text:UARTBusy)
                  2002b360    00000018                 : uart.obj (.text:UARTFIFOLevelSet)
                  2002b378    00000018                 : uart.obj (.text:UARTIntDisable)
                  2002b390    00000018                 : uart.obj (.text:UARTIntEnable)
                  2002b3a8    00000018     drivers_cc32xxware.aem4 : UART.oem4 (.text:UART_Params_init)
                  2002b3c0    00000018     drivers_wifi_cc32xxware.aem4 : osi_tirtos.oem4 (.text:VDeleteSimpleLinkSpawnTask)
                  2002b3d8    00000018                                  : WiFiCC3200.oem4 (.text:WiFiCC3200_init)
                  2002b3f0    00000018     cc3x00_host_driver.aem4 : driver.oem4 (.text:_SlDrvProtectionObjUnLock)
                  2002b408    00000018     CDIO_CC3200_pem4.oem4 (.text:free)
                  2002b420    00000018     rtsv7M4_T_le_eabi.lib : args_main.obj (.text)
                  2002b438    00000018                           : ll_mul_t2.obj (.text)
                  2002b450    00000018                           : strcmp.obj (.text)
                  2002b468    00000018     drivers_wifi_cc32xxware.aem4 : WiFiCC3200.oem4 (.text:spi_Close)
                  2002b480    00000018     CDIO_CC3200_pem4.oem4 (.text:ti_sysbios_BIOS_rtsUnlock__I)
                  2002b498    00000018     CDIO_CC3200_pem4.oem4 (.text:ti_sysbios_family_arm_m3_Hwi_Module__startupDone__F)
                  2002b4b0    00000018     CDIO_CC3200_pem4.oem4 (.text:ti_sysbios_family_arm_m3_Timer_Module__startupDone__F)
                  2002b4c8    00000018     sysbios.aem4 : BIOS.obj (.text:ti_sysbios_gates_GateMutex_leave__E)
                  2002b4e0    00000018                  : BIOS.obj (.text:ti_sysbios_knl_Task_sleepTimeout__I)
                  2002b4f8    00000018     ti.targets.arm.rtsarm.aem4 : Error.oem4 (.text:xdc_runtime_Error_check__E)
                  2002b510    00000018                                : System.oem4 (.text:xdc_runtime_System_exit__E)
                  2002b528    00000018                                : Text.oem4 (.text:xdc_runtime_Text_ropeText__E)
                  2002b540    00000016     tirtosport.aem4 : ClockP_tirtos.oem4 (.text:ClockP_delete)
                  2002b556    00000016                     : HwiP_tirtos.oem4 (.text:HwiP_delete)
                  2002b56c    00000016     driverlib.a : prcm.obj (.text:PRCMHIBRegRead)
                  2002b582    00000016                 : prcm.obj (.text:PRCMHIBRegWrite)
                  2002b598    00000016     tirtosport.aem4 : SemaphoreP_tirtos.oem4 (.text:SemaphoreP_delete)
                  2002b5ae    00000016     driverlib.a : uart.obj (.text:UARTCharGet)
                  2002b5c4    00000016     rtsv7M4_T_le_eabi.lib : strchr.obj (.text)
                  2002b5da    00000016     drivers_cc32xxware.aem4 : UARTCC3200.oem4 (.text:startTxFifoEmptyClk)
                  2002b5f0    00000016     CDIO_CC3200_pem4.oem4 (.text:ti_sysbios_BIOS_exitFunc__I)
                  2002b606    00000016     CDIO_CC3200.obj (.text:ti_sysbios_knl_Semaphore_Params_init)
                  2002b61c    00000016     CDIO_CC3200.obj (.text:ti_sysbios_knl_Task_Params_init)
                  2002b632    00000014     driverlib.a : cpu.obj (.text:CPUcpsid)
                  2002b646    00000014                 : cpu.obj (.text:CPUcpsie)
                  2002b65a    00000014                 : gpio.obj (.text:GPIOIntClear)
                  2002b66e    00000002     --HOLE-- [fill = 0]
                  2002b670    00000014     drivers_cc32xxware.aem4 : SPI.oem4 (.text:SPI_Params_init)
                  2002b684    00000014     drivers_wifi_cc32xxware.aem4 : WiFiCC3200.oem4 (.text:hostDriverInterruptHandler)
                  2002b698    00000014                                  : osi_tirtos.oem4 (.text:osi_SyncObjClear)
                  2002b6ac    00000014     rtsv7M4_T_le_eabi.lib : _lock.obj (.text)
                  2002b6c0    00000014                           : strcpy.obj (.text)
                  2002b6d4    00000014                           : strlen.obj (.text)
                  2002b6e8    00000014     CDIO_CC3200_pem4.oem4 (.text:ti_sysbios_family_arm_m3_Hwi_Object__get__S)
                  2002b6fc    00000004     --HOLE-- [fill = 0]
                  2002b700    00000014     sysbios.aem4 : BIOS.obj (.text:ti_sysbios_family_arm_m3_Hwi_switchFromBootStack__E)
                  2002b714    00000014     CDIO_CC3200_pem4.oem4 (.text:ti_sysbios_heaps_HeapMem_Object__get__S)
                  2002b728    00000014     sysbios.aem4 : BIOS.obj (.text:ti_sysbios_knl_Clock_tickReconfig__E)
                  2002b73c    00000014     CDIO_CC3200_pem4.oem4 (.text:ti_sysbios_knl_Swi_Object__get__S)
                  2002b750    00000014     driverlib.a : udma.obj (.text:uDMAControlBaseSet)
                  2002b764    00000012     tirtosport.aem4 : ClockP_tirtos.oem4 (.text:ClockP_start)
                  2002b776    00000012     drivers_cc32xxware.aem4 : RingBuf.oem4 (.text:RingBuf_construct)
                  2002b788    00000012     tirtosport.aem4 : SemaphoreP_tirtos.oem4 (.text:SemaphoreP_pend)
                  2002b79a    00000012     driverlib.a : uart.obj (.text:UARTIntClear)
                  2002b7ac    00000012                 : uart.obj (.text:UARTRxErrorGet)
                  2002b7be    00000012     cc3x00_host_driver.aem4 : driver.oem4 (.text:_SlDrvObjLockWaitForever)
                  2002b7d0    00000012                             : driver.oem4 (.text:_SlDrvSyncObjWaitForever)
                  2002b7e2    00000012                             : netapp.oem4 (.text:sl_NetAppMDNSUnRegisterService)
                  2002b7f4    00000004     --HOLE-- [fill = 0]
                  2002b7f8    00000012     sysbios.aem4 : BIOS.obj (.text:ti_sysbios_hal_Hwi_Module_startup__E)
                  2002b80a    00000012     CDIO_CC3200_pem4.oem4 (.text:xdc_runtime_Startup_exec__I)
                  2002b81c    00000010     CC3200_LAUNCHXL.obj (.text:CC3200_LAUNCHXL_initGeneral)
                  2002b82c    00000010     CC3200_LAUNCHXL.obj (.text:CC3200_LAUNCHXL_initWiFi)
                  2002b83c    00000010     drivers_wifi_cc32xxware.aem4 : WiFiCC3200.oem4 (.text:CC3X00_NWP_maskInterrupt)
                  2002b84c    00000010     drivers_cc32xxware.aem4 : PWM.oem4 (.text:PWM_Params_init)
                  2002b85c    00000010     driverlib.a : uart.obj (.text:UARTRxErrorClear)
                  2002b86c    00000010     drivers_cc32xxware.aem4 : WiFi.oem4 (.text:WiFi_Params_init)
                  2002b87c    00000010     cc3x00_host_driver.aem4 : device.oem4 (.text:_sl_GetStartResponseConvert)
                  2002b88c    00000010     simplelink_func.obj (.text:htons)
                  2002b89c    00000010     drivers_cc32xxware.aem4 : UARTCC3200.oem4 (.text:readBlockingTimeout)
                  2002b8ac    00000004     --HOLE-- [fill = 0]
                  2002b8b0    00000010     sysbios.aem4 : BIOS.obj (.text:ti_sysbios_BIOS_getCpuFreq__E)
                  2002b8c0    00000010                  : BIOS.obj (.text:ti_sysbios_BIOS_setThreadType__E)
                  2002b8d0    00000010                  : BIOS.obj (.text:ti_sysbios_BIOS_start__E)
                  2002b8e0    00000010                  : m3_TaskSupport_asm.obj (.text:ti_sysbios_family_arm_m3_TaskSupport_glue)
                  2002b8f0    00000010                  : m3_TaskSupport_asm.obj (.text:ti_sysbios_family_arm_m3_TaskSupport_swap__E)
                  2002b900    00000010                  : BIOS.obj (.text:ti_sysbios_gates_GateMutex_Instance_finalize__E)
                  2002b910    00000010     CDIO_CC3200_pem4.oem4 (.text:ti_sysbios_knl_Mailbox_Object__get__S)
                  2002b920    00000010     sysbios.aem4 : BIOS.obj (.text:ti_sysbios_knl_Semaphore_Instance_finalize__E)
                  2002b930    00000010                  : BIOS.obj (.text:ti_sysbios_knl_Swi_disable__E)
                  2002b940    00000010     CDIO_CC3200_pem4.oem4 (.text:ti_sysbios_knl_Task_Object__get__S)
                  2002b950    00000010     sysbios.aem4 : BIOS.obj (.text:ti_sysbios_knl_Task_disable__E)
                  2002b960    00000010     ti.targets.arm.rtsarm.aem4 : Gate.oem4 (.text:xdc_runtime_Gate_leaveSystem__E)
                  2002b970    00000010                                : Memory.oem4 (.text:xdc_runtime_Memory_free__E)
                  2002b980    00000010                                : SysMin.oem4 (.text:xdc_runtime_SysMin_ready__E)
                  2002b990    00000010                                : System.oem4 (.text:xdc_runtime_System_vsnprintf__E)
                  2002b9a0    00000010     CDIO_CC3200_pem4.oem4 (.text:xdc_runtime_Text_visitRope__I)
                  2002b9b0    0000000e     tirtosport.aem4 : HwiP_tirtos.oem4 (.text:HwiP_Params_init)
                  2002b9be    0000000e     cc3x00_host_driver.aem4 : driver.oem4 (.text:_SlDrvObjUnLock)
                  2002b9cc    0000000e                             : driver.oem4 (.text:_SlDrvSyncObjSignal)
                  2002b9da    0000000e     rtsv7M4_T_le_eabi.lib : copy_decompress_none.obj (.text:decompress:none)
                  2002b9e8    0000000e     sysbios.aem4 : BIOS.obj (.text:ti_sysbios_knl_Idle_loop__E)
                  2002b9f6    00000002     --HOLE-- [fill = 0]
                  2002b9f8    0000000e                  : BIOS.obj (.text:ti_sysbios_knl_Queue_empty__E)
                  2002ba06    00000002     --HOLE-- [fill = 0]
                  2002ba08    0000000c     drivers_wifi_cc32xxware.aem4 : WiFiCC3200.oem4 (.text:CC3X00_NWP_unMaskInterrupt)
                  2002ba14    0000000c     driverlib.a : cpu.obj (.text:CPUwfi)
                  2002ba20    0000000c     tirtosport.aem4 : ClockP_tirtos.oem4 (.text:ClockP_getSystemTickPeriod)
                  2002ba2c    0000000c     drivers_cc32xxware.aem4 : PowerCC3200.oem4 (.text:Power_getConstraintMask)
                  2002ba38    0000000c                             : PowerCC3200.oem4 (.text:Power_getDependencyCount)
                  2002ba44    0000000c                             : RingBuf.oem4 (.text:RingBuf_peek)
                  2002ba50    0000000c     simplelink_func.obj (.text:SimpleLinkHttpServerCallback)
                  2002ba5c    0000000c     drivers_cc32xxware.aem4 : UARTCC3200.oem4 (.text:UARTCC3200_init)
                  2002ba68    0000000c     drivers_wifi_cc32xxware.aem4 : osi_tirtos.oem4 (.text:osi_LockObjUnlock)
                  2002ba74    0000000c                                  : osi_tirtos.oem4 (.text:osi_SyncObjSignal)
                  2002ba80    0000000c                                  : osi_tirtos.oem4 (.text:osi_SyncObjSignalFromISR)
                  2002ba8c    0000000c     drivers_cc32xxware.aem4 : SPICC3200DMA.oem4 (.text:postNotifyFxn)
                  2002ba98    0000000c                             : UARTCC3200.oem4 (.text:postNotifyFxn)
                  2002baa4    0000000c     CDIO_CC3200_pem4.oem4 (.text:ti_sysbios_family_arm_m3_Hwi_Params__init__S)
                  2002bab0    0000000c     sysbios.aem4 : BIOS.obj (.text:ti_sysbios_family_arm_m3_Hwi_disableFxn__E)
                  2002babc    00000004     --HOLE-- [fill = 0]
                  2002bac0    0000000c                  : BIOS.obj (.text:ti_sysbios_family_arm_m3_TaskSupport_checkStack__E)
                  2002bacc    00000004     --HOLE-- [fill = 0]
                  2002bad0    0000000c                  : BIOS.obj (.text:ti_sysbios_family_arm_m3_TaskSupport_getStackAlignment__E)
                  2002badc    00000004     --HOLE-- [fill = 0]
                  2002bae0    0000000c                  : BIOS.obj (.text:ti_sysbios_gates_GateHwi_enter__E)
                  2002baec    0000000c     CDIO_CC3200_pem4.oem4 (.text:ti_sysbios_knl_Clock_Params__init__S)
                  2002baf8    0000000c     sysbios.aem4 : BIOS.obj (.text:ti_sysbios_knl_Clock_getTicks__E)
                  2002bb04    00000004     --HOLE-- [fill = 0]
                  2002bb08    0000000c                  : BIOS.obj (.text:ti_sysbios_knl_Clock_setTicks__E)
                  2002bb14    00000004     --HOLE-- [fill = 0]
                  2002bb18    0000000c                  : BIOS.obj (.text:ti_sysbios_knl_Clock_tickStart__E)
                  2002bb24    00000004     --HOLE-- [fill = 0]
                  2002bb28    0000000c                  : BIOS.obj (.text:ti_sysbios_knl_Clock_tickStop__E)
                  2002bb34    0000000c     CDIO_CC3200_pem4.oem4 (.text:ti_sysbios_knl_Queue_Object__get__S)
                  2002bb40    0000000c     CDIO_CC3200_pem4.oem4 (.text:ti_sysbios_knl_Semaphore_Params__init__S)
                  2002bb4c    0000000c     CDIO_CC3200.obj (.text:ti_sysbios_knl_Semaphore_handle)
                  2002bb58    0000000c     CDIO_CC3200_pem4.oem4 (.text:ti_sysbios_knl_Task_Params__init__S)
                  2002bb64    0000000c     driverlib.a : udma.obj (.text:uDMAControlBaseGet)
                  2002bb70    0000000c                 : udma.obj (.text:uDMAEnable)
                  2002bb7c    0000000c                 : udma.obj (.text:uDMAErrorStatusClear)
                  2002bb88    0000000c                 : udma.obj (.text:uDMAIntStatus)
                  2002bb94    0000000c     ti.targets.arm.rtsarm.aem4 : Error.oem4 (.text:xdc_runtime_Error_init__E)
                  2002bba0    0000000c                                : Gate.oem4 (.text:xdc_runtime_Gate_enterSystem__E)
                  2002bbac    0000000c                                : Memory.oem4 (.text:xdc_runtime_Memory_calloc__E)
                  2002bbb8    0000000c                                : Memory.oem4 (.text:xdc_runtime_Memory_getMaxDefaultTypeAlign__E)
                  2002bbc4    0000000a     tirtosport.aem4 : ClockP_tirtos.oem4 (.text:ClockP_stop)
                  2002bbce    0000000a     drivers_cc32xxware.aem4 : List.oem4 (.text:List_empty)
                  2002bbd8    0000000a                             : PWMTimerCC3200.oem4 (.text:PWMTimerCC3200_getPeriodCounts)
                  2002bbe2    0000000a                             : PWM.oem4 (.text:PWM_setDuty)
                  2002bbec    0000000a                             : SPI.oem4 (.text:SPI_close)
                  2002bbf6    0000000a                             : SPI.oem4 (.text:SPI_transfer)
                  2002bc00    0000000a     tirtosport.aem4 : SemaphoreP_tirtos.oem4 (.text:SemaphoreP_post)
                  2002bc0a    0000000a     drivers_cc32xxware.aem4 : WiFi.oem4 (.text:WiFi_close)
                  2002bc14    0000000a     CC3200_LAUNCHXL.obj (.text:dmaErrorHwi)
                  2002bc1e    0000000a     drivers_wifi_cc32xxware.aem4 : osi_tirtos.oem4 (.text:osi_LockObjDelete)
                  2002bc28    0000000a                                  : osi_tirtos.oem4 (.text:osi_SyncObjDelete)
                  2002bc32    0000000a     CDIO_CC3200_pem4.oem4 (.text:xdc_runtime_IHeap_alloc)
                  2002bc3c    0000000a     CDIO_CC3200_pem4.oem4 (.text:xdc_runtime_IHeap_free)
                  2002bc46    00000008     CC3200_LAUNCHXL.obj (.text:CC3200_LAUNCHXL_initGPIO)
                  2002bc4e    00000008     CC3200_LAUNCHXL.obj (.text:CC3200_LAUNCHXL_initPWM)
                  2002bc56    00000008     CC3200_LAUNCHXL.obj (.text:CC3200_LAUNCHXL_initUART)
                  2002bc5e    00000008     tirtosport.aem4 : ClockP_tirtos.oem4 (.text:ClockP_Params_init)
                  2002bc66    00000008     driverlib.a : prcm.obj (.text:PRCMSleepEnter)
                  2002bc6e    00000008     drivers_cc32xxware.aem4 : PWMTimerCC3200.oem4 (.text:PWMTimerCC3200_init)
                  2002bc76    00000008     tirtosport.aem4 : SemaphoreP_tirtos.oem4 (.text:SemaphoreP_Params_init)
                  2002bc7e    00000008     cc3x00_host_driver.aem4 : driver.oem4 (.text:_SlDrvMemZero)
                  2002bc86    00000008     drivers_cc32xxware.aem4 : UARTCC3200.oem4 (.text:readSemCallback)
                  2002bc8e    00000008     rtsv7M4_T_le_eabi.lib : s_copysign.obj (.text)
                  2002bc96    00000008     cc3x00_host_driver.aem4 : wlan.oem4 (.text:sl_WlanDisconnect)
                  2002bc9e    00000002     --HOLE-- [fill = 0]
                  2002bca0    00000008     sysbios.aem4 : BIOS.obj (.text:ti_sysbios_family_arm_m3_Hwi_doSwiRestore__I)
                  2002bca8    00000008                  : BIOS.obj (.text:ti_sysbios_family_arm_m3_Hwi_startup__E)
                  2002bcb0    00000008     drivers_cc32xxware.aem4 : SPICC3200DMA.oem4 (.text:transferCallback)
                  2002bcb8    00000008                             : UARTCC3200.oem4 (.text:writeSemCallback)
                  2002bcc0    00000006     drivers_wifi_cc32xxware.aem4 : WiFiCC3200.oem4 (.text:WiFiCC3200_control)
                  2002bcc6    00000006     cc3x00_host_driver.aem4 : driver.oem4 (.text:_SlDrvResetCmdExt)
                  2002bccc    00000006     rtsv7M4_T_le_eabi.lib : copy_decompress_rle.obj (.text:decompress:rle24)
                  2002bcd2    00000006     ti.targets.arm.rtsarm.aem4 : System.oem4 (.text:xdc_runtime_System_Module_startup__E)
                  2002bcd8    00000006     sysbios.aem4 : BIOS.obj (.text:ti_sysbios_family_arm_m3_Hwi_restoreFxn__E)
                  2002bcde    00000002     --HOLE-- [fill = 0]
                  2002bce0    00000006                  : BIOS.obj (.text:ti_sysbios_gates_GateHwi_leave__E)
                  2002bce6    00000002     --HOLE-- [fill = 0]
                  2002bce8    00000006                  : BIOS.obj (.text:ti_sysbios_heaps_HeapMem_isBlocking__E)
                  2002bcee    00000002     --HOLE-- [fill = 0]
                  2002bcf0    00000006                  : BIOS.obj (.text:ti_sysbios_knl_Clock_stop__E)
                  2002bcf6    00000002     --HOLE-- [fill = 0]
                  2002bcf8    00000006                  : BIOS.obj (.text:ti_sysbios_knl_Queue_Instance_init__E)
                  2002bcfe    00000002     --HOLE-- [fill = 0]
                  2002bd00    00000006                  : BIOS.obj (.text:ti_sysbios_knl_Swi_startup__E)
                  2002bd06    00000002     --HOLE-- [fill = 0]
                  2002bd08    00000004                  : BIOS.obj (.text:ti_sysbios_family_arm_m3_Timer_getMaxTicks__E)
                  2002bd0c    00000004     --HOLE-- [fill = 0]
                  2002bd10    00000004                  : BIOS.obj (.text:ti_sysbios_gates_GateHwi_query__E)
                  2002bd14    00000004     --HOLE-- [fill = 0]
                  2002bd18    00000004                  : BIOS.obj (.text:ti_sysbios_gates_GateMutex_query__E)
                  2002bd1c    00000004     --HOLE-- [fill = 0]
                  2002bd20    00000004                  : BIOS.obj (.text:ti_sysbios_knl_Clock_setTimeout__E)
                  2002bd24    00000004     --HOLE-- [fill = 0]
                  2002bd28    00000004                  : BIOS.obj (.text:ti_sysbios_knl_Task_startup__E)
                  2002bd2c    00000004     --HOLE-- [fill = 0]
                  2002bd30    00000002                  : BIOS.obj (.text:ti_sysbios_gates_GateHwi_Instance_init__E)
                  2002bd32    00000006     --HOLE-- [fill = 0]
                  2002bd38    00000002                  : BIOS.obj (.text:ti_sysbios_knl_Clock_logTick__E)

.const     0    2002bd3c    00002778     
                  2002bd3c    00001806     CDIO_CC3200_pem4.oem4 (.const:xdc_runtime_Text_charTab__A)
                  2002d542    00000101     rtsv7M4_T_le_eabi.lib : ctype.obj (.const:.string:_ctypes_)
                  2002d643    00000001     CDIO_CC3200_pem4.oem4 (.const:ti_sysbios_knl_Clock_tickMode__C)
                  2002d644    00000100     driverlib.a : pin.obj (.const:g_ulPinToPadMap)
                  2002d744    000000b0     cc3x00_host_driver.aem4 : wlan.oem4 (.const:$P$T0$1)
                  2002d7f4    000000a8     driverlib.a : prcm.obj (.const:PRCM_PeriphRegsList)
                  2002d89c    000000a8     CDIO_CC3200_pem4.oem4 (.const:xdc_runtime_Text_nodeTab__A)
                  2002d944    00000080     driverlib.a : interrupt.obj (.const)
                  2002d9c4    00000068     CC3200_LAUNCHXL.obj (.const:spiCC3200DMAHWAttrs)
                  2002da2c    00000060     drivers_cc32xxware.aem4 : SPICC3200DMA.oem4 (.const)
                  2002da8c    0000004c                             : UARTCC3200.oem4 (.const)
                  2002dad8    00000048     CDIO_CC3200_pem4.oem4 (.const:.string)
                  2002db20    0000003c     cc3x00_host_driver.aem4 : driver.oem4 (.const:OpcodeTranslateTable)
                  2002db5c    0000003c                             : wlan.oem4 (.const)
                  2002db98    0000003c     CDIO_CC3200_pem4.oem4 (.const:ti_sysbios_knl_Task_Object__PARAMS__C)
                  2002dbd4    00000038     cc3x00_host_driver.aem4 : driver.oem4 (.const:_SlActionLookupTable)
                  2002dc0c    00000034                             : socket.oem4 (.const)
                  2002dc40    00000034     drivers_cc32xxware.aem4 : GPIOCC3200.oem4 (.const)
                  2002dc74    00000034     CDIO_CC3200_pem4.oem4 (.const:ti_sysbios_knl_Mailbox_Object__PARAMS__C)
                  2002dca8    00000030     CDIO_CC3200_pem4.oem4 (.const:ti_sysbios_family_arm_m3_Hwi_Object__PARAMS__C)
                  2002dcd8    00000030     CC3200_LAUNCHXL.obj (.const:uartCC3200HWAttrs)
                  2002dd08    0000002c     simplelink_func.obj (.const:$P$T1$2)
                  2002dd34    0000002a     drivers_cc32xxware.aem4 : GPIOCC3200.oem4 (.const:.string)
                  2002dd5e    00000002     CDIO_CC3200_pem4.oem4 (.const:ti_sysbios_family_arm_m3_Hwi_Module__id__C)
                  2002dd60    00000028     CC3200_LAUNCHXL.obj (.const:PowerCC3200_config)
                  2002dd88    00000028     drivers_cc32xxware.aem4 : UARTCC3200.oem4 (.const:UARTCC3200_fxnTable)
                  2002ddb0    00000028     cc3x00_host_driver.aem4 : netapp.oem4 (.const)
                  2002ddd8    00000028     CDIO_CC3200_pem4.oem4 (.const:ti_sysbios_heaps_HeapMem_Module__FXNS__C)
                  2002de00    00000024     CC3200_LAUNCHXL.obj (.const:PWM_config)
                  2002de24    00000024     CC3200_LAUNCHXL.obj (.const:SPI_config)
                  2002de48    00000024     CC3200_LAUNCHXL.obj (.const:UART_config)
                  2002de6c    00000024     drivers_cc32xxware.aem4 : UART.oem4 (.const:UART_defaultParams)
                  2002de90    00000024     cc3x00_host_driver.aem4 : driver.oem4 (.const)
                  2002deb4    00000024     CDIO_CC3200_pem4.oem4 (.const:ti_sysbios_gates_GateHwi_Module__FXNS__C)
                  2002ded8    00000024     CDIO_CC3200_pem4.oem4 (.const:ti_sysbios_gates_GateMutex_Module__FXNS__C)
                  2002defc    00000024     CDIO_CC3200_pem4.oem4 (.const:ti_sysbios_heaps_HeapMem_Object__PARAMS__C)
                  2002df20    00000024     CDIO_CC3200_pem4.oem4 (.const:ti_sysbios_knl_Clock_Object__PARAMS__C)
                  2002df44    00000024     CDIO_CC3200_pem4.oem4 (.const:ti_sysbios_knl_Semaphore_Object__PARAMS__C)
                  2002df68    00000024     CDIO_CC3200_pem4.oem4 (.const:xdc_runtime_Startup_sfxnTab__A)
                  2002df8c    00000022     simplelink_func.obj (.const:.string:$P$T0$1)
                  2002dfae    00000002     CDIO_CC3200_pem4.oem4 (.const:ti_sysbios_family_arm_m3_Timer_Module__id__C)
                  2002dfb0    00000020     drivers_cc32xxware.aem4 : PWMTimerCC3200.oem4 (.const)
                  2002dfd0    00000020                             : SPI.oem4 (.const)
                  2002dff0    00000020     CDIO_CC3200_pem4.oem4 (.const:ti_sysbios_family_arm_m3_Hwi_Object__DESC__C)
                  2002e010    00000020     CDIO_CC3200_pem4.oem4 (.const:ti_sysbios_gates_GateHwi_Object__DESC__C)
                  2002e030    00000020     CDIO_CC3200_pem4.oem4 (.const:ti_sysbios_gates_GateMutex_Object__DESC__C)
                  2002e050    00000020     CDIO_CC3200_pem4.oem4 (.const:ti_sysbios_heaps_HeapMem_Object__DESC__C)
                  2002e070    00000020     CDIO_CC3200_pem4.oem4 (.const:ti_sysbios_knl_Clock_Object__DESC__C)
                  2002e090    00000020     CDIO_CC3200_pem4.oem4 (.const:ti_sysbios_knl_Mailbox_Object__DESC__C)
                  2002e0b0    00000020     CDIO_CC3200_pem4.oem4 (.const:ti_sysbios_knl_Queue_Object__DESC__C)
                  2002e0d0    00000020     CDIO_CC3200_pem4.oem4 (.const:ti_sysbios_knl_Semaphore_Object__DESC__C)
                  2002e0f0    00000020     CDIO_CC3200_pem4.oem4 (.const:ti_sysbios_knl_Task_Object__DESC__C)
                  2002e110    00000018     simplelink_func.obj (.const:$P$T6$7)
                  2002e128    00000018     CC3200_LAUNCHXL.obj (.const:WiFi_config)
                  2002e140    00000018     driverlib.a : spi.obj (.const)
                  2002e158    00000018     CDIO_CC3200_pem4.oem4 (.const:ti_sysbios_gates_GateHwi_Object__PARAMS__C)
                  2002e170    00000018     CDIO_CC3200_pem4.oem4 (.const:ti_sysbios_gates_GateMutex_Object__PARAMS__C)
                  2002e188    00000018     CDIO_CC3200_pem4.oem4 (.const:ti_sysbios_knl_Queue_Object__PARAMS__C)
                  2002e1a0    00000014     simplelink_func.obj (.const:$P$T2$3)
                  2002e1b4    00000014     CC3200_LAUNCHXL.obj (.const:GPIOCC3200_config)
                  2002e1c8    00000014     cc3x00_host_driver.aem4 : device.oem4 (.const)
                  2002e1dc    00000012     simplelink_func.obj (.const:.string:$P$T7$8)
                  2002e1ee    00000012     CDIO_CC3200_pem4.oem4 (.const:xdc_runtime_Startup_sfxnRts__A)
                  2002e200    00000010     cc3x00_host_driver.aem4 : socket.oem4 (.const:.string)
                  2002e210    00000010     drivers_wifi_cc32xxware.aem4 : WiFiCC3200.oem4 (.const)
                  2002e220    00000010     CC3200_LAUNCHXL.obj (.const:pwmTimerCC3200HWAttrs)
                  2002e230    00000010     webclient.a : httpcli.obj (.const)
                  2002e240    0000000c     simplelink_func.obj (.const:$P$T4$5)
                  2002e24c    0000000c     simplelink_func.obj (.const:.string:$P$T3$4)
                  2002e258    0000000c     drivers_cc32xxware.aem4 : PWM.oem4 (.const)
                  2002e264    0000000c                             : WiFi.oem4 (.const)
                  2002e270    0000000c     CDIO_CC3200_pem4.oem4 (.const:xdc_runtime_Startup_firstFxns__A)
                  2002e27c    0000000a     simplelink_func.obj (.const:.string:$P$T5$6)
                  2002e286    00000008     cc3x00_host_driver.aem4 : device.oem4 (.const:.string)
                  2002e28e    00000008     webclient.a : httpcli.obj (.const:.string)
                  2002e296    00000008     cc3x00_host_driver.aem4 : netcfg.oem4 (.const)
                  2002e29e    00000002     CDIO_CC3200_pem4.oem4 (.const:ti_sysbios_gates_GateMutex_Module__id__C)
                  2002e2a0    00000008     CDIO_CC3200_pem4.oem4 (.const:ti_sysbios_family_arm_m3_Hwi_excHookFuncs__A)
                  2002e2a8    00000008     CDIO_CC3200_pem4.oem4 (.const:ti_sysbios_knl_Idle_funcList__A)
                  2002e2b0    00000008     CDIO_CC3200_pem4.oem4 (.const:ti_sysbios_knl_Idle_funcList__C)
                  2002e2b8    00000008     CDIO_CC3200_pem4.oem4 (.const:xdc_runtime_Startup_firstFxns__C)
                  2002e2c0    00000008     CDIO_CC3200_pem4.oem4 (.const:xdc_runtime_Startup_lastFxns__C)
                  2002e2c8    00000004     CDIO_CC3200_pem4.oem4 (.const:ti_sysbios_family_arm_m3_Hwi_E_NMI__C)
                  2002e2cc    00000004     CDIO_CC3200_pem4.oem4 (.const:ti_sysbios_family_arm_m3_Hwi_E_alreadyDefined__C)
                  2002e2d0    00000004     CDIO_CC3200_pem4.oem4 (.const:ti_sysbios_family_arm_m3_Hwi_E_busFault__C)
                  2002e2d4    00000004     CDIO_CC3200_pem4.oem4 (.const:ti_sysbios_family_arm_m3_Hwi_E_debugMon__C)
                  2002e2d8    00000004     CDIO_CC3200_pem4.oem4 (.const:ti_sysbios_family_arm_m3_Hwi_E_hardFault__C)
                  2002e2dc    00000004     CDIO_CC3200_pem4.oem4 (.const:ti_sysbios_family_arm_m3_Hwi_E_memFault__C)
                  2002e2e0    00000004     CDIO_CC3200_pem4.oem4 (.const:ti_sysbios_family_arm_m3_Hwi_E_noIsr__C)
                  2002e2e4    00000004     CDIO_CC3200_pem4.oem4 (.const:ti_sysbios_family_arm_m3_Hwi_E_reserved__C)
                  2002e2e8    00000004     CDIO_CC3200_pem4.oem4 (.const:ti_sysbios_family_arm_m3_Hwi_E_svCall__C)
                  2002e2ec    00000004     CDIO_CC3200_pem4.oem4 (.const:ti_sysbios_family_arm_m3_Hwi_E_usageFault__C)
                  2002e2f0    00000004     CDIO_CC3200_pem4.oem4 (.const:ti_sysbios_family_arm_m3_Hwi_NUM_INTERRUPTS__C)
                  2002e2f4    00000004     CDIO_CC3200_pem4.oem4 (.const:ti_sysbios_family_arm_m3_Hwi_Object__count__C)
                  2002e2f8    00000004     CDIO_CC3200_pem4.oem4 (.const:ti_sysbios_family_arm_m3_Hwi_ccr__C)
                  2002e2fc    00000004     CDIO_CC3200_pem4.oem4 (.const:ti_sysbios_family_arm_m3_Hwi_excHandlerFunc__C)
                  2002e300    00000004     CDIO_CC3200_pem4.oem4 (.const:ti_sysbios_family_arm_m3_Hwi_excHookFuncs__C)
                  2002e304    00000004     CDIO_CC3200_pem4.oem4 (.const:ti_sysbios_family_arm_m3_Hwi_nullIsrFunc__C)
                  2002e308    00000004     CDIO_CC3200_pem4.oem4 (.const:ti_sysbios_family_arm_m3_Hwi_priGroup__C)
                  2002e30c    00000004     CDIO_CC3200_pem4.oem4 (.const:ti_sysbios_family_arm_m3_TaskSupport_stackAlignment__C)
                  2002e310    00000004     CDIO_CC3200_pem4.oem4 (.const:ti_sysbios_family_arm_m3_Timer_E_cannotSupport__C)
                  2002e314    00000004     CDIO_CC3200_pem4.oem4 (.const:ti_sysbios_family_arm_m3_Timer_startupNeeded__C)
                  2002e318    00000004     CDIO_CC3200_pem4.oem4 (.const:ti_sysbios_gates_GateMutex_A_badContext__C)
                  2002e31c    00000004     CDIO_CC3200_pem4.oem4 (.const:ti_sysbios_gates_GateMutex_Instance_State_sem__O)
                  2002e320    00000004     CDIO_CC3200_pem4.oem4 (.const:ti_sysbios_gates_GateMutex_Module__diagsEnabled__C)
                  2002e324    00000004     CDIO_CC3200_pem4.oem4 (.const:ti_sysbios_gates_GateMutex_Module__diagsIncluded__C)
                  2002e328    00000004     CDIO_CC3200_pem4.oem4 (.const:ti_sysbios_gates_GateMutex_Module__diagsMask__C)
                  2002e32c    00000004     CDIO_CC3200_pem4.oem4 (.const:ti_sysbios_hal_Hwi_E_stackOverflow__C)
                  2002e330    00000004     CDIO_CC3200_pem4.oem4 (.const:ti_sysbios_heaps_HeapMem_A_align__C)
                  2002e334    00000004     CDIO_CC3200_pem4.oem4 (.const:ti_sysbios_heaps_HeapMem_A_heapSize__C)
                  2002e338    00000004     CDIO_CC3200_pem4.oem4 (.const:ti_sysbios_heaps_HeapMem_A_invalidFree__C)
                  2002e33c    00000004     CDIO_CC3200_pem4.oem4 (.const:ti_sysbios_heaps_HeapMem_A_zeroBlock__C)
                  2002e340    00000004     CDIO_CC3200_pem4.oem4 (.const:ti_sysbios_heaps_HeapMem_E_memory__C)
                  2002e344    00000004     CDIO_CC3200_pem4.oem4 (.const:ti_sysbios_heaps_HeapMem_Module__diagsEnabled__C)
                  2002e348    00000004     CDIO_CC3200_pem4.oem4 (.const:ti_sysbios_heaps_HeapMem_Module__diagsIncluded__C)
                  2002e34c    00000004     CDIO_CC3200_pem4.oem4 (.const:ti_sysbios_heaps_HeapMem_Module__diagsMask__C)
                  2002e350    00000004     CDIO_CC3200_pem4.oem4 (.const:ti_sysbios_heaps_HeapMem_Module__gateObj__C)
                  2002e354    00000004     CDIO_CC3200_pem4.oem4 (.const:ti_sysbios_heaps_HeapMem_Object__count__C)
                  2002e358    00000004     CDIO_CC3200_pem4.oem4 (.const:ti_sysbios_heaps_HeapMem_reqAlign__C)
                  2002e35c    00000004     CDIO_CC3200_pem4.oem4 (.const:ti_sysbios_knl_Clock_A_badThreadType__C)
                  2002e360    00000004     CDIO_CC3200_pem4.oem4 (.const:ti_sysbios_knl_Clock_Module_State_clockQ__O)
                  2002e364    00000004     CDIO_CC3200_pem4.oem4 (.const:ti_sysbios_knl_Clock_Module__diagsEnabled__C)
                  2002e368    00000004     CDIO_CC3200_pem4.oem4 (.const:ti_sysbios_knl_Clock_Module__diagsIncluded__C)
                  2002e36c    00000004     CDIO_CC3200_pem4.oem4 (.const:ti_sysbios_knl_Clock_Module__diagsMask__C)
                  2002e370    00000004     CDIO_CC3200_pem4.oem4 (.const:ti_sysbios_knl_Clock_tickPeriod__C)
                  2002e374    00000004     CDIO_CC3200_pem4.oem4 (.const:ti_sysbios_knl_Mailbox_A_invalidBufSize__C)
                  2002e378    00000004     CDIO_CC3200_pem4.oem4 (.const:ti_sysbios_knl_Mailbox_Instance_State_dataQue__O)
                  2002e37c    00000004     CDIO_CC3200_pem4.oem4 (.const:ti_sysbios_knl_Mailbox_Instance_State_dataSem__O)
                  2002e380    00000004     CDIO_CC3200_pem4.oem4 (.const:ti_sysbios_knl_Mailbox_Instance_State_freeQue__O)
                  2002e384    00000004     CDIO_CC3200_pem4.oem4 (.const:ti_sysbios_knl_Mailbox_Instance_State_freeSem__O)
                  2002e388    00000004     CDIO_CC3200_pem4.oem4 (.const:ti_sysbios_knl_Mailbox_Module__diagsEnabled__C)
                  2002e38c    00000004     CDIO_CC3200_pem4.oem4 (.const:ti_sysbios_knl_Mailbox_Module__diagsIncluded__C)
                  2002e390    00000004     CDIO_CC3200_pem4.oem4 (.const:ti_sysbios_knl_Mailbox_Module__diagsMask__C)
                  2002e394    00000004     CDIO_CC3200_pem4.oem4 (.const:ti_sysbios_knl_Mailbox_Object__count__C)
                  2002e398    00000004     CDIO_CC3200_pem4.oem4 (.const:ti_sysbios_knl_Mailbox_maxTypeAlign__C)
                  2002e39c    00000004     CDIO_CC3200_pem4.oem4 (.const:ti_sysbios_knl_Semaphore_A_badContext__C)
                  2002e3a0    00000004     CDIO_CC3200_pem4.oem4 (.const:ti_sysbios_knl_Semaphore_A_noEvents__C)
                  2002e3a4    00000004     CDIO_CC3200_pem4.oem4 (.const:ti_sysbios_knl_Semaphore_A_overflow__C)
                  2002e3a8    00000004     CDIO_CC3200_pem4.oem4 (.const:ti_sysbios_knl_Semaphore_A_pendTaskDisabled__C)
                  2002e3ac    00000004     CDIO_CC3200_pem4.oem4 (.const:ti_sysbios_knl_Semaphore_Instance_State_pendQ__O)
                  2002e3b0    00000004     CDIO_CC3200_pem4.oem4 (.const:ti_sysbios_knl_Semaphore_Module__diagsEnabled__C)
                  2002e3b4    00000004     CDIO_CC3200_pem4.oem4 (.const:ti_sysbios_knl_Semaphore_Module__diagsIncluded__C)
                  2002e3b8    00000004     CDIO_CC3200_pem4.oem4 (.const:ti_sysbios_knl_Semaphore_Module__diagsMask__C)
                  2002e3bc    00000004     CDIO_CC3200_pem4.oem4 (.const:ti_sysbios_knl_Swi_Object__count__C)
                  2002e3c0    00000004     CDIO_CC3200_pem4.oem4 (.const:ti_sysbios_knl_Task_A_badPriority__C)
                  2002e3c4    00000004     CDIO_CC3200_pem4.oem4 (.const:ti_sysbios_knl_Task_A_badTaskState__C)
                  2002e3c8    00000004     CDIO_CC3200_pem4.oem4 (.const:ti_sysbios_knl_Task_A_badThreadType__C)
                  2002e3cc    00000004     CDIO_CC3200_pem4.oem4 (.const:ti_sysbios_knl_Task_A_badTimeout__C)
                  2002e3d0    00000004     CDIO_CC3200_pem4.oem4 (.const:ti_sysbios_knl_Task_A_noPendElem__C)
                  2002e3d4    00000004     CDIO_CC3200_pem4.oem4 (.const:ti_sysbios_knl_Task_A_sleepTaskDisabled__C)
                  2002e3d8    00000004     CDIO_CC3200_pem4.oem4 (.const:ti_sysbios_knl_Task_E_spOutOfBounds__C)
                  2002e3dc    00000004     CDIO_CC3200_pem4.oem4 (.const:ti_sysbios_knl_Task_E_stackOverflow__C)
                  2002e3e0    00000004     CDIO_CC3200_pem4.oem4 (.const:ti_sysbios_knl_Task_Module_State_inactiveQ__O)
                  2002e3e4    00000004     CDIO_CC3200_pem4.oem4 (.const:ti_sysbios_knl_Task_Module__diagsEnabled__C)
                  2002e3e8    00000004     CDIO_CC3200_pem4.oem4 (.const:ti_sysbios_knl_Task_Module__diagsIncluded__C)
                  2002e3ec    00000004     CDIO_CC3200_pem4.oem4 (.const:ti_sysbios_knl_Task_Module__diagsMask__C)
                  2002e3f0    00000004     CDIO_CC3200_pem4.oem4 (.const:ti_sysbios_knl_Task_Object__count__C)
                  2002e3f4    00000004     CDIO_CC3200_pem4.oem4 (.const:ti_sysbios_knl_Task_allBlockedFunc__C)
                  2002e3f8    00000004     CDIO_CC3200_pem4.oem4 (.const:ti_sysbios_knl_Task_defaultStackHeap__C)
                  2002e3fc    00000004     CDIO_CC3200_pem4.oem4 (.const:ti_sysbios_knl_Task_defaultStackSize__C)
                  2002e400    00000004     CDIO_CC3200_pem4.oem4 (.const:ti_sysbios_knl_Task_numConstructedTasks__C)
                  2002e404    00000004     CC3200_LAUNCHXL.obj (.const:wiFiCC3200HWAttrs)
                  2002e408    00000004     CDIO_CC3200_pem4.oem4 (.const:xdc_runtime_Assert_E_assertFailed__C)
                  2002e40c    00000004     CDIO_CC3200_pem4.oem4 (.const:xdc_runtime_Core_A_initializedParams__C)
                  2002e410    00000004     CDIO_CC3200_pem4.oem4 (.const:xdc_runtime_Core_Module__diagsEnabled__C)
                  2002e414    00000004     CDIO_CC3200_pem4.oem4 (.const:xdc_runtime_Core_Module__diagsIncluded__C)
                  2002e418    00000004     CDIO_CC3200_pem4.oem4 (.const:xdc_runtime_Core_Module__diagsMask__C)
                  2002e41c    00000004     CDIO_CC3200_pem4.oem4 (.const:xdc_runtime_Error_E_memory__C)
                  2002e420    00000004     CDIO_CC3200_pem4.oem4 (.const:xdc_runtime_Error_Module__diagsEnabled__C)
                  2002e424    00000004     CDIO_CC3200_pem4.oem4 (.const:xdc_runtime_Error_Module__diagsIncluded__C)
                  2002e428    00000004     CDIO_CC3200_pem4.oem4 (.const:xdc_runtime_Error_Module__diagsMask__C)
                  2002e42c    00000004     CDIO_CC3200_pem4.oem4 (.const:xdc_runtime_Error_Module__loggerFxn8__C)
                  2002e430    00000004     CDIO_CC3200_pem4.oem4 (.const:xdc_runtime_Error_Module__loggerObj__C)
                  2002e434    00000004     CDIO_CC3200_pem4.oem4 (.const:xdc_runtime_Error_policyFxn__C)
                  2002e438    00000004     CDIO_CC3200_pem4.oem4 (.const:xdc_runtime_Error_raiseHook__C)
                  2002e43c    00000004     CDIO_CC3200_pem4.oem4 (.const:xdc_runtime_IGateProvider_Interface__BASE__C)
                  2002e440    00000004     CDIO_CC3200_pem4.oem4 (.const:xdc_runtime_IHeap_Interface__BASE__C)
                  2002e444    00000004     CDIO_CC3200_pem4.oem4 (.const:xdc_runtime_IModule_Interface__BASE__C)
                  2002e448    00000004     CDIO_CC3200_pem4.oem4 (.const:xdc_runtime_Log_L_error__C)
                  2002e44c    00000004     CDIO_CC3200_pem4.oem4 (.const:xdc_runtime_Memory_defaultHeapInstance__C)
                  2002e450    00000004     CDIO_CC3200_pem4.oem4 (.const:xdc_runtime_Startup_execImpl__C)
                  2002e454    00000004     CDIO_CC3200_pem4.oem4 (.const:xdc_runtime_Startup_maxPasses__C)
                  2002e458    00000004     CDIO_CC3200_pem4.oem4 (.const:xdc_runtime_Startup_sfxnRts__C)
                  2002e45c    00000004     CDIO_CC3200_pem4.oem4 (.const:xdc_runtime_Startup_sfxnTab__C)
                  2002e460    00000004     CDIO_CC3200_pem4.oem4 (.const:xdc_runtime_SysMin_bufSize__C)
                  2002e464    00000004     CDIO_CC3200_pem4.oem4 (.const:xdc_runtime_SysMin_outputFunc__C)
                  2002e468    00000004     CDIO_CC3200_pem4.oem4 (.const:xdc_runtime_System_Module__gateObj__C)
                  2002e46c    00000004     CDIO_CC3200_pem4.oem4 (.const:xdc_runtime_System_abortFxn__C)
                  2002e470    00000004     CDIO_CC3200_pem4.oem4 (.const:xdc_runtime_System_exitFxn__C)
                  2002e474    00000004     CDIO_CC3200_pem4.oem4 (.const:xdc_runtime_System_extendFxn__C)
                  2002e478    00000004     CDIO_CC3200_pem4.oem4 (.const:xdc_runtime_System_maxAtexitHandlers__C)
                  2002e47c    00000004     CDIO_CC3200_pem4.oem4 (.const:xdc_runtime_Text_charTab__C)
                  2002e480    00000004     CDIO_CC3200_pem4.oem4 (.const:xdc_runtime_Text_nameEmpty__C)
                  2002e484    00000004     CDIO_CC3200_pem4.oem4 (.const:xdc_runtime_Text_nameStatic__C)
                  2002e488    00000004     CDIO_CC3200_pem4.oem4 (.const:xdc_runtime_Text_nameUnknown__C)
                  2002e48c    00000004     CDIO_CC3200_pem4.oem4 (.const:xdc_runtime_Text_nodeTab__C)
                  2002e490    00000004     CDIO_CC3200_pem4.oem4 (.const:xdc_runtime_Text_visitRopeFxn__C)
                  2002e494    00000002     CDIO_CC3200_pem4.oem4 (.const:ti_sysbios_hal_Hwi_Module__id__C)
                  2002e496    00000002     CDIO_CC3200_pem4.oem4 (.const:ti_sysbios_heaps_HeapMem_Module__id__C)
                  2002e498    00000002     CDIO_CC3200_pem4.oem4 (.const:ti_sysbios_knl_Clock_Module__id__C)
                  2002e49a    00000002     CDIO_CC3200_pem4.oem4 (.const:ti_sysbios_knl_Mailbox_Module__id__C)
                  2002e49c    00000002     CDIO_CC3200_pem4.oem4 (.const:ti_sysbios_knl_Semaphore_Module__id__C)
                  2002e49e    00000002     CDIO_CC3200_pem4.oem4 (.const:ti_sysbios_knl_Task_Module__id__C)
                  2002e4a0    00000002     CDIO_CC3200_pem4.oem4 (.const:xdc_runtime_Core_Module__id__C)
                  2002e4a2    00000002     CDIO_CC3200_pem4.oem4 (.const:xdc_runtime_Error_Module__loggerDefined__C)
                  2002e4a4    00000002     CDIO_CC3200_pem4.oem4 (.const:xdc_runtime_Error_maxDepth__C)
                  2002e4a6    00000002     CDIO_CC3200_pem4.oem4 (.const:xdc_runtime_Memory_Module__id__C)
                  2002e4a8    00000002     CDIO_CC3200_pem4.oem4 (.const:xdc_runtime_SysMin_flushAtExit__C)
                  2002e4aa    00000002     CDIO_CC3200_pem4.oem4 (.const:xdc_runtime_Text_charCnt__C)
                  2002e4ac    00000002     CDIO_CC3200_pem4.oem4 (.const:xdc_runtime_Text_isLoaded__C)
                  2002e4ae    00000002     CDIO_CC3200_pem4.oem4 (.const:xdc_runtime_Text_registryModsLastId__C)
                  2002e4b0    00000002     CDIO_CC3200_pem4.oem4 (.const:xdc_runtime_Text_unnamedModsLastId__C)
                  2002e4b2    00000001     CDIO_CC3200_pem4.oem4 (.const:ti_sysbios_knl_Clock_tickSource__C)
                  2002e4b3    00000001     CDIO_CC3200_pem4.oem4 (.const:xdc_runtime_Error_policy__C)

.cinit     0    2002ec90    00000370     
                  2002ec90    00000343     (.cinit..data.load) [load image, compression = rle]
                  2002efd3    00000005     --HOLE-- [fill = 0]
                  2002efd8    0000000d     (.cinit..bss.load) [load image, compression = rle]
                  2002efe5    00000003     --HOLE-- [fill = 0]
                  2002efe8    00000008     (__TI_handler_table)
                  2002eff0    00000010     (__TI_cinit_table)

.init_array 
*          0    20004000    00000000     UNINITIALIZED

.resetVecs 
*          0    20004000    0000030c     
                  20004000    0000030c     CDIO_CC3200_pem4.oem4 (.resetVecs)

.data      0    2002e4b4    000004d5     UNINITIALIZED
                  2002e4b4    00000080     CDIO_CC3200_pem4.oem4 (.data:ti_sysbios_knl_Swi_Module_State_0_readyQ__A)
                  2002e534    00000080     CDIO_CC3200_pem4.oem4 (.data:ti_sysbios_knl_Task_Module_State_0_readyQ__A)
                  2002e5b4    00000054     drivers_cc32xxware.aem4 : PowerCC3200.oem4 (.data:PowerCC3200_module)
                  2002e608    0000004c     CDIO_CC3200_pem4.oem4 (.data:ti_sysbios_knl_Task_Object__table__V)
                  2002e654    00000048     webclient.a : httpcli.obj (.data:tlsParams)
                  2002e69c    00000044     CDIO_CC3200_pem4.oem4 (.data:ti_sysbios_knl_Task_Module__state__V)
                  2002e6e0    00000038     CDIO_CC3200_pem4.oem4 (.data:ti_sysbios_gates_GateMutex_Object__table__V)
                  2002e718    00000034     CDIO_CC3200_pem4.oem4 (.data:ti_sysbios_family_arm_m3_Hwi_Module__state__V)
                  2002e74c    00000030     CDIO_CC3200_pem4.oem4 (.data:ti_sysbios_family_arm_m3_Timer_Object__table__V)
                  2002e77c    00000030     CDIO_CC3200_pem4.oem4 (.data:ti_sysbios_knl_Swi_Object__table__V)
                  2002e7ac    0000002c     CDIO_CC3200_pem4.oem4 (.data:ti_sysbios_knl_Clock_Module__state__V)
                  2002e7d8    00000024     CDIO_CC3200_pem4.oem4 (.data:ti_sysbios_BIOS_Module__state__V)
                  2002e7fc    0000001c     CDIO_CC3200_pem4.oem4 (.data:ti_sysbios_knl_Swi_Module__state__V)
                  2002e818    00000019     cc3x00_host_driver.aem4 : driver.oem4 (.data)
                  2002e831    00000001     CC3200_LAUNCHXL.obj (.data)
                  2002e832    00000002     CDIO_CC3200_pem4.oem4 (.data:ti_sysbios_family_arm_m3_Hwi_Module_State_0_excActive__A)
                  2002e834    00000018     CDIO_CC3200_pem4.oem4 (.data:ti_sysbios_family_arm_m3_Hwi_Object__table__V)
                  2002e84c    00000018     CDIO_CC3200_pem4.oem4 (.data:ti_sysbios_heaps_HeapMem_Object__table__V)
                  2002e864    00000014     gpio_if.obj (.data:ulReg)
                  2002e878    00000010     webclient.a : httpcli.obj (.data)
                  2002e888    0000000e     CDIO_CC3200.obj (.data)
                  2002e896    00000002     CDIO_CC3200_pem4.oem4 (.data:xdc_runtime_Error_Module__state__V)
                  2002e898    0000000c     rtsv7M4_T_le_eabi.lib : exit.obj (.data:$O1$$)
                  2002e8a4    0000000c     CC3200_LAUNCHXL.obj (.data:gpioCallbackFunctions)
                  2002e8b0    0000000c     CC3200_LAUNCHXL.obj (.data:gpioPinConfigs)
                  2002e8bc    0000000c     CDIO_CC3200_pem4.oem4 (.data:ti_sysbios_family_arm_m3_Timer_Module__state__V)
                  2002e8c8    0000000c     CDIO_CC3200_pem4.oem4 (.data:xdc_runtime_SysMin_Module__state__V)
                  2002e8d4    00000008     rtsv7M4_T_le_eabi.lib : _lock.obj (.data:$O1$$)
                  2002e8dc    00000008     drivers_cc32xxware.aem4 : GPIOCC3200.oem4 (.data)
                  2002e8e4    00000008     simplelink_func.obj (.data)
                  2002e8ec    00000008     CDIO_CC3200_pem4.oem4 (.data:ti_sysbios_family_arm_m3_Hwi_Module__root__V)
                  2002e8f4    00000008     CDIO_CC3200_pem4.oem4 (.data:ti_sysbios_gates_GateHwi_Module__root__V)
                  2002e8fc    00000008     CDIO_CC3200_pem4.oem4 (.data:ti_sysbios_gates_GateMutex_Module__root__V)
                  2002e904    00000008     CDIO_CC3200_pem4.oem4 (.data:ti_sysbios_heaps_HeapMem_Module__root__V)
                  2002e90c    00000008     CDIO_CC3200_pem4.oem4 (.data:ti_sysbios_knl_Clock_Module__root__V)
                  2002e914    00000008     CDIO_CC3200_pem4.oem4 (.data:ti_sysbios_knl_Mailbox_Module__root__V)
                  2002e91c    00000008     CDIO_CC3200_pem4.oem4 (.data:ti_sysbios_knl_Queue_Module__root__V)
                  2002e924    00000008     CDIO_CC3200_pem4.oem4 (.data:ti_sysbios_knl_Semaphore_Module__root__V)
                  2002e92c    00000008     CDIO_CC3200_pem4.oem4 (.data:ti_sysbios_knl_Task_Module__root__V)
                  2002e934    00000008     CDIO_CC3200_pem4.oem4 (.data:xdc_runtime_Registry_Module__state__V)
                  2002e93c    00000008     CDIO_CC3200_pem4.oem4 (.data:xdc_runtime_Startup_Module__state__V)
                  2002e944    00000008     CDIO_CC3200_pem4.oem4 (.data:xdc_runtime_System_Module_State_0_atexitHandlers__A)
                  2002e94c    00000008     CDIO_CC3200_pem4.oem4 (.data:xdc_runtime_System_Module__state__V)
                  2002e954    00000004     drivers_cc32xxware.aem4 : PWM.oem4 (.data)
                  2002e958    00000004                             : SPI.oem4 (.data)
                  2002e95c    00000004                             : SPICC3200DMA.oem4 (.data)
                  2002e960    00000004                             : UART.oem4 (.data)
                  2002e964    00000004                             : WiFi.oem4 (.data)
                  2002e968    00000004     drivers_wifi_cc32xxware.aem4 : WiFiCC3200.oem4 (.data)
                  2002e96c    00000004     rtsv7M4_T_le_eabi.lib : errno.obj (.data)
                  2002e970    00000004                           : stkdepth_vars.obj (.data)
                  2002e974    00000004     CDIO_CC3200_pem4.oem4 (.data:ti_sysbios_family_arm_m3_Hwi_Module_State_0_excContext__A)
                  2002e978    00000004     CDIO_CC3200_pem4.oem4 (.data:ti_sysbios_family_arm_m3_Hwi_Module_State_0_excStack__A)
                  2002e97c    00000004     CDIO_CC3200_pem4.oem4 (.data:ti_sysbios_gates_GateHwi_Object__table__V)
                  2002e980    00000004     CDIO_CC3200_pem4.oem4 (.data:ti_sysbios_knl_Task_Module_State_0_idleTask__A)
                  2002e984    00000004     CDIO_CC3200_pem4.oem4 (.data:xdc_runtime_Memory_Module__state__V)
                  2002e988    00000001     power_cc3200_tirtos.aem4 : PowerCC3200_tirtos.oem4 (.data)

.stack     0    2002e98c    00000300     UNINITIALIZED
                  2002e98c    00000300     --HOLE--

.bootVecs 
*          0    00000000    00000008     DSECT
                  00000000    00000008     boot.aem4 : boot.oem4 (.bootVecs)

.vecs      0    20004000    00000000     DSECT

xdc.meta   0    00000000    000000f4     COPY SECTION
                  00000000    000000f4     CDIO_CC3200_pem4.oem4 (xdc.meta)

MODULE SUMMARY

       Module                     code    ro data   rw data
       ------                     ----    -------   -------
    .\
       CDIO_CC3200.obj            2280    0         90234  
       simplelink_func.obj        4097    174       56     
       CC3200_LAUNCHXL.obj        150     364       1585   
       rom_pin_mux_config.obj     258     0         0      
       uart_if.obj                210     0         0      
       gpio_if.obj                134     0         20     
    +--+--------------------------+-------+---------+---------+
       Total:                     7129    538       91895  
                                                           
    C:\Users\Gabriel\Documents\GitHub\APA\CDIO_CC3200\Debug\configPkg\package\cfg\
       CDIO_CC3200_pem4.oem4      2290    8511      7836   
    +--+--------------------------+-------+---------+---------+
       Total:                     2290    8511      7836   
                                                           
    C:/ti/CC3200SDK_1.2.0/cc3200-sdk/netapps/http/client/ccs/HTTPClientMinLib/webclient.a
       httpcli.obj                4036    24        88     
       ssock.obj                  746     0         0      
    +--+--------------------------+-------+---------+---------+
       Total:                     4782    24        88     
                                                           
    C:/ti/tirex-content/tirtos_cc32xx_2_16_00_08/products/CC3200_driverlib_1.1.0/driverlib/ccs/Release/driverlib.a
       prcm.obj                   1356    168       0      
       spi.obj                    1000    24        0      
       pin.obj                    406     256       0      
       udma.obj                   612     0         0      
       uart.obj                   524     0         0      
       gpio.obj                   296     0         0      
       timer.obj                  282     0         0      
       interrupt.obj              88      128       0      
       flash.obj                  72      0         0      
       cpu.obj                    52      0         0      
       utils.obj                  6       0         0      
    +--+--------------------------+-------+---------+---------+
       Total:                     4694    576       0      
                                                           
    C:/ti/tirex-content/tirtos_cc32xx_2_16_00_08/products/tidrivers_cc32xx_2_16_00_08/packages/ti/drivers/lib/drivers_cc32xxware.aem4
       UARTCC3200.oem4            2546    116       0      
       SPICC3200DMA.oem4          1474    96        4      
       PowerCC3200.oem4           940     0         384    
       GPIOCC3200.oem4            960     94        60     
       PWMTimerCC3200.oem4        642     32        0      
       SPI.oem4                   144     32        4      
       UART.oem4                  128     36        4      
       RingBuf.oem4               164     0         0      
       WiFi.oem4                  142     12        4      
       PWM.oem4                   130     12        4      
       PowerCC3200_asm.oem4       134     0         0      
       List.oem4                  82      0         0      
    +--+--------------------------+-------+---------+---------+
       Total:                     7486    430       464    
                                                           
    C:/ti/tirex-content/tirtos_cc32xx_2_16_00_08/products/tidrivers_cc32xx_2_16_00_08/packages/ti/drivers/lib/drivers_wifi_cc32xxware.aem4
       WiFiCC3200.oem4            752     16        4      
       osi_tirtos.oem4            536     0         8      
    +--+--------------------------+-------+---------+---------+
       Total:                     1288    16        12     
                                                           
    C:/ti/tirex-content/tirtos_cc32xx_2_16_00_08/products/tidrivers_cc32xx_2_16_00_08/packages/ti/drivers/lib/power_cc3200_tirtos.aem4
       PowerCC3200_tirtos.oem4    500     0         13     
    +--+--------------------------+-------+---------+---------+
       Total:                     500     0         13     
                                                           
    C:/ti/tirex-content/tirtos_cc32xx_2_16_00_08/products/tidrivers_cc32xx_2_16_00_08/packages/ti/drivers/ports/lib/tirtosport.aem4
       ClockP_tirtos.oem4         164     0         0      
       SemaphoreP_tirtos.oem4     146     0         0      
       HwiP_tirtos.oem4           142     0         0      
    +--+--------------------------+-------+---------+---------+
       Total:                     452     0         0      
                                                           
    C:/ti/tirex-content/tirtos_cc32xx_2_16_00_08/products/tidrivers_cc32xx_2_16_00_08/packages/ti/mw/wifi/cc3x00/lib/cc3x00_host_driver.aem4
       driver.oem4                3884    152       26     
       socket.oem4                978     68        0      
       netapp.oem4                920     40        0      
       wlan.oem4                  716     236       0      
       device.oem4                664     28        0      
       netcfg.oem4                80      8         0      
    +--+--------------------------+-------+---------+---------+
       Total:                     7242    532       26     
                                                           
    C:\Users\Gabriel\Documents\GitHub\APA\CDIO_CC3200\src\sysbios\sysbios.aem4
       BIOS.obj                   13028   0         0      
       m3_Hwi_asm.obj             266     0         0      
       m3_TaskSupport_asm.obj     108     0         0      
       m3_Hwi_asm_switch.obj      102     0         0      
    +--+--------------------------+-------+---------+---------+
       Total:                     13504   0         0      
                                                           
    C:\ti\ccsv62\ccsv6\tools\compiler\arm_15.12.3.LTS\lib\rtsv7M4_T_le_eabi.lib
       _printfi.obj               4348    0         0      
       trgdrv.obj                 804     0         8      
       ull_div_t2.obj             500     0         0      
       fd_add_t2.obj              438     0         0      
       trgmsg.obj                 104     0         288    
       fd_div_t2.obj              310     0         0      
       strtoul.obj                276     0         0      
       fd_cmp_t2.obj              268     0         0      
       ctype.obj                  0       257       0      
       fd_mul_t2.obj              252     0         0      
       s_scalbn.obj               208     0         0      
       memcpy_t2.obj              156     0         0      
       vsnprintf.obj              136     0         0      
       memset_t2.obj              122     0         0      
       copy_decompress_rle.obj    112     0         0      
       exit.obj                   84      0         12     
       s_frexp.obj                92      0         0      
       ltoa.obj                   86      0         0      
       atoi.obj                   76      0         0      
       cpy_tbl.obj                76      0         0      
       fd_toi_t2.obj              72      0         0      
       u_divt2.obj                64      0         0      
       i_tofd_t2.obj              46      0         0      
       strncmp.obj                38      0         0      
       _lock.obj                  20      0         8      
       memccpy.obj                28      0         0      
       args_main.obj              24      0         0      
       ll_mul_t2.obj              24      0         0      
       strcmp.obj                 24      0         0      
       strchr.obj                 22      0         0      
       strcpy.obj                 20      0         0      
       strlen.obj                 20      0         0      
       copy_decompress_none.obj   14      0         0      
       s_copysign.obj             8       0         0      
       errno.obj                  0       0         4      
       stkdepth_vars.obj          0       0         4      
       i_div0.obj                 2       0         0      
    +--+--------------------------+-------+---------+---------+
       Total:                     8874    257       324    
                                                           
    C:\ti\tirex-content\tirtos_cc32xx_2_16_00_08\products\bios_6_45_01_29\packages\ti\targets\arm\rtsarm\lib\auto_init.aem4
       auto_init.oem4             160     0         0      
    +--+--------------------------+-------+---------+---------+
       Total:                     160     0         0      
                                                           
    C:\ti\tirex-content\tirtos_cc32xx_2_16_00_08\products\bios_6_45_01_29\packages\ti\targets\arm\rtsarm\lib\boot.aem4
       boot.oem4                  68      0         0      
    +--+--------------------------+-------+---------+---------+
       Total:                     68      0         0      
                                                           
    C:\ti\tirex-content\tirtos_cc32xx_2_16_00_08\products\bios_6_45_01_29\packages\ti\targets\arm\rtsarm\lib\ti.targets.arm.rtsarm.aem4
       System.oem4                1255    0         0      
       Text.oem4                  672     0         0      
       Error.oem4                 524     0         0      
       Core-mem.oem4              358     0         0      
       Startup.oem4               328     0         0      
       SysMin.oem4                248     0         0      
       Core-smem.oem4             204     0         0      
       Memory.oem4                176     0         0      
       Assert.oem4                84      0         0      
       Core-params.oem4           70      0         0      
       Core-label.oem4            52      0         0      
       Registry.oem4              32      0         0      
       Gate.oem4                  28      0         0      
    +--+--------------------------+-------+---------+---------+
       Total:                     4031    0         0      
                                                           
       Stack:                     0       0         768    
       Linker Generated:          0       872       0      
    +--+--------------------------+-------+---------+---------+
       Grand Total:               62500   11756     101426 


LINKER GENERATED COPY TABLES

__TI_cinit_table @ 2002eff0 records: 2, size/record: 8, table size: 16
	.data: load addr=2002ec90, load size=00000343 bytes, run addr=2002e4b4, run size=000004d5 bytes, compression=rle
	.bss: load addr=2002efd8, load size=0000000d bytes, run addr=20004400, run size=0001845d bytes, compression=rle


LINKER GENERATED HANDLER TABLE

__TI_handler_table @ 2002efe8 records: 2, size/record: 4, table size: 8
	index: 0, handler: __TI_decompress_rle24
	index: 1, handler: __TI_decompress_none


GLOBAL SYMBOLS: SORTED ALPHABETICALLY BY Name 

address   name                                                       
-------   ----                                                       
20028061  C$$EXIT                                                    
200272e3  C$$IO$$                                                    
20027f65  CC3200_LAUNCHXL_initDMA                                    
2002bc47  CC3200_LAUNCHXL_initGPIO                                   
2002b81d  CC3200_LAUNCHXL_initGeneral                                
2002bc4f  CC3200_LAUNCHXL_initPWM                                    
2002bc57  CC3200_LAUNCHXL_initUART                                   
2002b82d  CC3200_LAUNCHXL_initWiFi                                   
20029c95  CC3X00_NWP_disable                                         
2002a505  CC3X00_NWP_enable                                          
2002825d  CC3X00_NWP_enablePreamble                                  
2002b83d  CC3X00_NWP_maskInterrupt                                   
2002ba09  CC3X00_NWP_unMaskInterrupt                                 
2002b633  CPUcpsid                                                   
2002b647  CPUcpsie                                                   
2002ba15  CPUwfi                                                     
2002bc5f  ClockP_Params_init                                         
20027bf1  ClockP_create                                              
2002b541  ClockP_delete                                              
20020a95  ClockP_getCpuFreq                                          
2002ba21  ClockP_getSystemTickPeriod                                 
2002baf9  ClockP_getSystemTicks                                      
2002b765  ClockP_start                                               
2002b765  ClockP_startFromISR                                        
2002bbc5  ClockP_stop                                                
2002bbc5  ClockP_stopFromISR                                         
2002b115  CopyPingResultsToReport                                    
200288c9  FlashDisable                                               
2002e1b4  GPIOCC3200_config                                          
20029bf1  GPIODirModeSet                                             
2002b65b  GPIOIntClear                                               
2002b12f  GPIOIntEnable                                              
2002ab55  GPIOIntStatus                                              
20026685  GPIOIntTypeSet                                             
2002abdd  GPIOPinWrite                                               
20028491  GPIO_IF_GetPortNPin                                        
20029869  GPIO_IF_Set                                                
2002918d  GPIO_enableInt                                             
20027525  GPIO_hwiIntFxn                                             
20026475  GPIO_init                                                  
200284dd  GPIO_setCallback                                           
20022115  GPIO_setConfig                                             
20020243  HOSTclock                                                  
2002020b  HOSTclose                                                  
200201cd  HOSTgetenv                                                 
20020171  HOSTlseek                                                  
2002011f  HOSTopen                                                   
200200d3  HOSTread                                                   
20020075  HOSTrename                                                 
2002003b  HOSTtime                                                   
2001fff1  HOSTtime64                                                 
2001ffb9  HOSTunlink                                                 
2001ff6d  HOSTwrite                                                  
2001e287  HTTPCli_connect                                            
2001e3a9  HTTPCli_construct                                          
2001e3f1  HTTPCli_create                                             
2001e409  HTTPCli_delete                                             
2001e43f  HTTPCli_destruct                                           
2001e487  HTTPCli_disconnect                                         
2001e6bd  HTTPCli_getResponseField                                   
2001e687  HTTPCli_getResponseStatus                                  
2001e179  HTTPCli_initSockAddr                                       
2001e8cd  HTTPCli_readRawResponseBody                                
2001e841  HTTPCli_readResponseBody                                   
2001e5f7  HTTPCli_sendField                                          
2001e529  HTTPCli_sendRequest                                        
2001e64f  HTTPCli_sendRequestBody                                    
2001e90d  HTTPCli_setProxy                                           
2001e4bd  HTTPCli_setRequestFields                                   
2001e4e3  HTTPCli_setResponseFields                                  
2001e509  HTTPCli_setSecureParams                                    
2002b9b1  HwiP_Params_init                                           
20021115  HwiP_clearInterrupt                                        
2002771d  HwiP_create                                                
2002b557  HwiP_delete                                                
200218bd  HwiP_disable                                               
2002bcd9  HwiP_restore                                               
2002b2d1  InsertPenInt                                               
20027ca5  IntPendClear                                               
2002bbcf  List_empty                                                 
2002256d  List_head                                                  
200226d5  List_next                                                  
2002a879  List_put                                                   
2002b149  List_remove                                                
2002a761  Message                                                    
2002db20  OpcodeTranslateTable                                       
20022e95  PRCMCC3200MCUInit                                          
2002b56d  PRCMHIBRegRead                                             
2002b583  PRCMHIBRegWrite                                            
2002724d  PRCMHibernateWakeUpGPIOSelect                              
20028911  PRCMHibernateWakeupSourceEnable                            
200298a5  PRCMIntEnable                                              
20028d45  PRCMLPDSEnter                                              
2002a531  PRCMLPDSIntervalSet                                        
2002abfd  PRCMLPDSRestoreInfoSet                                     
2002a8ed  PRCMLPDSWakeUpGPIOSelect                                   
2002a789  PRCMLPDSWakeupSourceEnable                                 
2002a7b1  PRCMPeripheralClkDisable                                   
20029511  PRCMPeripheralClkEnable                                    
20025b19  PRCMPeripheralClockGet                                     
20027cfd  PRCMPeripheralReset                                        
20029cc9  PRCMPeripheralStatusGet                                    
20029cfd  PRCMSRAMRetentionEnable                                    
2002bc67  PRCMSleepEnter                                             
2002954d  PRCMSlowClkCtrFastGet                                      
2002a55d  PRCMSysResetCauseGet                                       
2002dfce  PWMTimerCC3200_MAX_MATCH_VALUE                             
2002dfcc  PWMTimerCC3200_MAX_PRESCALAR_VALUE                         
2002a479  PWMTimerCC3200_close                                       
20026c45  PWMTimerCC3200_control                                     
2002dfb0  PWMTimerCC3200_fxnTable                                    
2002bbd9  PWMTimerCC3200_getPeriodCounts                             
2002057b  PWMTimerCC3200_getPeriodMicroSecs                          
2002bc6f  PWMTimerCC3200_init                                        
2002414d  PWMTimerCC3200_open                                        
20024a35  PWMTimerCC3200_setDuty                                     
2002b84d  PWM_Params_init                                            
2002de00  PWM_config                                                 
2002e258  PWM_defaultParams                                          
200298dd  PWM_init                                                   
2002a0e5  PWM_open                                                   
2002bbe3  PWM_setDuty                                                
20028959  PinConfigGet                                               
20026039  PinConfigSet                                               
20029589  PinDirModeSet                                              
200291cd  PinModeSet                                                 
20023895  PinMuxConfig                                               
2002a115  PinTypeGPIO                                                
2002b163  PinTypeTimer                                               
2002dd60  PowerCC3200_config                                         
2001c310  PowerCC3200_contextSave                                    
20028d89  PowerCC3200_enterLPDS                                      
20029915  PowerCC3200_initPolicy                                     
2002e5b4  PowerCC3200_module                                         
20029109  PowerCC3200_resumeLPDS                                     
20021f8d  PowerCC3200_sleepPolicy                                    
2002ba2d  Power_getConstraintMask                                    
2002ba39  Power_getDependencyCount                                   
2002ac1d  Power_idleFunc                                             
20027d55  Power_init                                                 
2002a7d9  Power_registerNotify                                       
2002a145  Power_releaseConstraint                                    
20029d31  Power_releaseDependency                                    
2002a175  Power_setConstraint                                        
2002920d  Power_setDependency                                        
20026cb5  Power_sleep                                                
2002ac3d  Power_unregisterNotify                                     
20024fd9  Report                                                     
2002b777  RingBuf_construct                                          
2002924d  RingBuf_get                                                
2002ba45  RingBuf_peek                                               
20028cb9  RingBuf_put                                                
2001c85c  RxIrqCnt                                                   
2002de90  RxMsgClassLUT                                              
UNDEFED   SHT$$INIT_ARRAY$$Base                                      
UNDEFED   SHT$$INIT_ARRAY$$Limit                                     
2001c664  SPICC3200DMAObjects                                        
20027c4b  SPICC3200DMA_close                                         
2002512b  SPICC3200DMA_control                                       
2002da2c  SPICC3200DMA_fxnTable                                      
2002af35  SPICC3200DMA_init                                          
20022fc9  SPICC3200DMA_open                                          
2001f8a7  SPICC3200DMA_serviceISR                                    
20022831  SPICC3200DMA_transfer                                      
20021c3f  SPICC3200DMA_transferCancel                                
2002b2e9  SPICSDisable                                               
2002b301  SPICSEnable                                                
200253c9  SPIConfigSetExpClk                                         
2002ac5d  SPIDataGet                                                 
2002a639  SPIDataGetNonBlocking                                      
2002ae61  SPIDataPut                                                 
2002b319  SPIDisable                                                 
2002b17d  SPIDmaDisable                                              
2002b197  SPIDmaEnable                                               
2002b331  SPIEnable                                                  
2002b1b1  SPIFIFODisable                                             
2002b1cb  SPIFIFOEnable                                              
20029d65  SPIFIFOLevelSet                                            
200289a1  SPIIntClear                                                
20028529  SPIIntDisable                                              
20028575  SPIIntEnable                                               
20026809  SPIIntStatus                                               
2002ab77  SPIReset                                                   
2002ab99  SPIWordCountSet                                            
2002b671  SPI_Params_init                                            
2002bbed  SPI_close                                                  
2002de24  SPI_config                                                 
2002dfd0  SPI_defaultParams                                          
2002994d  SPI_init                                                   
2002a1a5  SPI_open                                                   
2002bbf7  SPI_transfer                                               
2002bc77  SemaphoreP_Params_init                                     
20027dad  SemaphoreP_create                                          
2002b599  SemaphoreP_delete                                          
2002b789  SemaphoreP_pend                                            
2002bc01  SemaphoreP_post                                            
2002bc01  SemaphoreP_postFromClock                                   
2002bc01  SemaphoreP_postFromISR                                     
20028e11  SimpleLinkGeneralEventHandler                              
2002ba51  SimpleLinkHttpServerCallback                               
20023789  SimpleLinkNetAppEventHandler                               
20023a99  SimpleLinkSockEventHandler                                 
2001c834  SimpleLinkSpawnTaskHndl                                    
200216e9  SimpleLinkWlanEventHandler                                 
200202a9  Ssock_construct                                            
200202e9  Ssock_create                                               
20020303  Ssock_delete                                               
2002032b  Ssock_destruct                                             
2002037d  Ssock_getSocket                                            
2002038b  Ssock_recv                                                 
200203e5  Ssock_recvall                                              
20020429  Ssock_send                                                 
20020543  Ssock_startSecure                                          
2002e286  StartResponseLUT                                           
20029c27  TimerControlLevel                                          
2002ae7f  TimerDisable                                               
2002ae9d  TimerEnable                                                
2002a663  TimerLoadSet                                               
2002a68d  TimerMatchSet                                              
2002a6b7  TimerPrescaleMatchSet                                      
2002a6e1  TimerPrescaleSet                                           
2002b349  UARTBusy                                                   
200260c1  UARTCC3200_close                                           
2002581f  UARTCC3200_control                                         
2002dd88  UARTCC3200_fxnTable                                        
2002ba5d  UARTCC3200_init                                            
20020f0d  UARTCC3200_open                                            
2002928d  UARTCC3200_read                                            
20029c5d  UARTCC3200_readCancel                                      
200258b7  UARTCC3200_readPolling                                     
20025325  UARTCC3200_write                                           
20027fb9  UARTCC3200_writeCancel                                     
2002914b  UARTCC3200_writePolling                                    
2002b5af  UARTCharGet                                                
2002af51  UARTCharGetNonBlocking                                     
2002aebb  UARTCharPut                                                
2002a911  UARTCharPutNonBlocking                                     
20026ae1  UARTConfigSetExpClk                                        
2002a1d5  UARTDisable                                                
2002a935  UARTEnable                                                 
2002b361  UARTFIFOLevelSet                                           
2002af6d  UARTFlowControlSet                                         
2002b79b  UARTIntClear                                               
2002b379  UARTIntDisable                                             
2002b391  UARTIntEnable                                              
2002aed9  UARTIntStatus                                              
2002b85d  UARTRxErrorClear                                           
2002b7ad  UARTRxErrorGet                                             
2002b3a9  UART_Params_init                                           
2002de48  UART_config                                                
2002de6c  UART_defaultParams                                         
20029985  UART_init                                                  
2002a205  UART_open                                                  
200256e3  UtilsDelay                                                 
2002b3c1  VDeleteSimpleLinkSpawnTask                                 
20026979  VStartSimpleLinkSpawnTask                                  
2002aef7  WiFiCC3200_close                                           
2002bcc1  WiFiCC3200_control                                         
2002e210  WiFiCC3200_fxnTable                                        
2002b3d9  WiFiCC3200_init                                            
20026789  WiFiCC3200_open                                            
2002b86d  WiFi_Params_init                                           
2002bc0b  WiFi_close                                                 
2002e128  WiFi_config                                                
2002e264  WiFi_defaultParams                                         
200299bd  WiFi_init                                                  
200295c5  WiFi_open                                                  
2002dc20  _SlAcceptCmdCtrl                                           
2002dbd4  _SlActionLookupTable                                       
20028e99  _SlAsyncEventGenericHandler                                
2002e1d4  _SlDeviceGetCmdCtrl                                        
2002e1d8  _SlDeviceSetCmdCtrl                                        
20029d99  _SlDrvBasicCmd                                             
20026b59  _SlDrvClassifyRxMsg                                        
20026d25  _SlDrvCmdOp                                                
20027e05  _SlDrvCmdSend                                              
2002422d  _SlDrvDataReadOp                                           
20024f2d  _SlDrvDataWriteOp                                          
200285c1  _SlDrvDeviceEventHandler                                   
20025d6d  _SlDrvDriverCBDeinit                                       
20023f75  _SlDrvDriverCBInit                                         
2002bc7f  _SlDrvMemZero                                              
2001f50d  _SlDrvMsgRead                                              
20025951  _SlDrvMsgReadCmdCtx                                        
20026e79  _SlDrvMsgReadSpawnCtx                                      
20023445  _SlDrvMsgWrite                                             
20024c5d  _SlDrvNetAppEventHandler                                   
2002b7bf  _SlDrvObjLockWaitForever                                   
2002b9bf  _SlDrvObjUnLock                                            
20029dcd  _SlDrvProtectAsyncRespSetting                              
2002af89  _SlDrvProtectionObjLockWaitForever                         
2002b3f1  _SlDrvProtectionObjUnLock                                  
200247f1  _SlDrvReleasePoolObj                                       
2002bcc7  _SlDrvResetCmdExt                                          
20022985  _SlDrvRxHdrRead                                            
200292cd  _SlDrvRxIrqHandler                                         
2002b9cd  _SlDrvSyncObjSignal                                        
2002b7d1  _SlDrvSyncObjWaitForever                                   
200243e5  _SlDrvWaitForPoolObj                                       
2002e1d0  _SlEventMaskGetCmdCtrl                                     
2002e1cc  _SlEventMaskSetCmdCtrl                                     
20025bad  _SlFindAndSetActiveObj                                     
2002ddc4  _SlGetHostByNameCtrl                                       
2002ddc0  _SlGetHostByServiceCtrl                                    
2002ddb8  _SlGetServiceListeCtrl                                     
2002dc2c  _SlGetSockOptCmdCtrl                                       
2002dc1c  _SlListenCmdCtrl                                           
2002ddd0  _SlNetAppGetCmdCtrl                                        
2002ddcc  _SlNetAppSendTokenValueCmdCtrl                             
2002ddc8  _SlNetAppSetCmdCtrl                                        
2002ddb0  _SlNetAppStartCtrl                                         
2002ddb4  _SlNetAppStopCtrl                                          
2002e29a  _SlNetCfgGetCmdCtrl                                        
2002e296  _SlNetCfgSetCmdCtrl                                        
2002e200  _SlPayloadByProtocolLUT                                    
2002db60  _SlPolicyGetCmdCtrl                                        
2002db5c  _SlPolicySetCmdCtrl                                        
2002db68  _SlProfileDelCmdCtrl                                       
2002db64  _SlProfileGetCmdCtrl                                       
2002dc24  _SlRecvCmdCtrl                                             
2002dc14  _SlRecvfomCmdCtrl                                          
2002ddbc  _SlRegisterServiceCtrl                                     
200289e9  _SlRemoveFromList                                          
2002db70  _SlRxFilterAddtCmdCtrl                                     
2002db78  _SlRxFilterGetCmdCtrl                                      
2002db74  _SlRxFilterSetCmdCtrl                                      
2002dc30  _SlSelectCmdCtrl                                           
2002dc18  _SlSendCmdCtrl                                             
2002dc28  _SlSetSockOptCmdCtrl                                       
2002db7c  _SlSmartConfigStartCmdCtrl                                 
2002dc10  _SlSockCloseCmdCtrl                                        
2002dc0c  _SlSockSocketCmdCtrl                                       
2002e1c8  _SlStopCmdCtrl                                             
2002db88  _SlWlanCfgGetCmdCtrl                                       
2002db84  _SlWlanCfgSetCmdCtrl                                       
2002db6c  _SlWlanGetNetworkListCtrl                                  
2002db80  _SlWlanSetModeCmdCtrl                                      
00000000  __ASM__                                                    
2001c43c  __CIOBUF_                                                  
0000006d  __ISA__                                                    
00000080  __PLAT__                                                   
2002ec8c  __STACK_END                                                
00000300  __STACK_SIZE                                               
000000a7  __TARG__                                                   
2002eff0  __TI_CINIT_Base                                            
2002f000  __TI_CINIT_Limit                                           
2002efe8  __TI_Handler_Table_Base                                    
2002eff0  __TI_Handler_Table_Limit                                   
20025469  __TI_auto_init                                             
2002e898  __TI_cleanup_ptr                                           
2002b9db  __TI_decompress_none                                       
2002bccd  __TI_decompress_rle24                                      
2002e89c  __TI_dtors_ptr                                             
2002e8a0  __TI_enable_exit_profile_output                            
ffffffff  __TI_pprof_out_hndl                                        
2001d657  __TI_printfi                                               
ffffffff  __TI_prof_data_size                                        
ffffffff  __TI_prof_data_start                                       
200272e7  __TI_readmsg                                               
2002ec90  __TI_static_base__                                         
200272b5  __TI_writemsg                                              
000000cc  __TRDR__                                                   
20026369  __aeabi_cdcmpeq                                            
20026369  __aeabi_cdcmple                                            
200263ef  __aeabi_cdrcmple                                           
20028ac1  __aeabi_d2iz                                               
20021a93  __aeabi_dadd                                               
20022d5d  __aeabi_ddiv                                               
20023b97  __aeabi_dmul                                               
20021a89  __aeabi_dsub                                               
2002a4d5  __aeabi_i2d                                                
20022e93  __aeabi_idiv0                                              
2002b439  __aeabi_lmul                                               
200268ff  __aeabi_memclr                                             
200268ff  __aeabi_memclr4                                            
200268ff  __aeabi_memclr8                                            
20025647  __aeabi_memcpy                                             
20025647  __aeabi_memcpy4                                            
20025647  __aeabi_memcpy8                                            
20026901  __aeabi_memset                                             
20026901  __aeabi_memset4                                            
20026901  __aeabi_memset8                                            
2002940d  __aeabi_uidiv                                              
2002940d  __aeabi_uidivmod                                           
20021315  __aeabi_uldivmod                                           
ffffffff  __binit__                                                  
ffffffff  __c_args__                                                 
2002e98c  __stack                                                    
2002b421  _args_main                                                 
20028edd  _c_int00                                                   
2002d542  _ctypes_                                                   
2002e8d4  _lock                                                      
2002b6bb  _nop                                                       
2002b6b3  _register_lock                                             
2002b6ad  _register_unlock                                           
2002a70b  _sl_BuildAddress                                           
2002b87d  _sl_GetStartResponseConvert                                
2002860d  _sl_HandleAsync_Accept                                     
200282ad  _sl_HandleAsync_Connect                                    
20027589  _sl_HandleAsync_DnsGetHostByName                           
20027781  _sl_HandleAsync_DnsGetHostByService                        
200277e1  _sl_HandleAsync_InitComplete                               
20027841  _sl_HandleAsync_PingResponse                               
2002930d  _sl_HandleAsync_Select                                     
20029601  _sl_HandleAsync_Stop                                       
20027e5d  _sl_NetAppSendTokenValue                                   
2002afa5  _sl_TruncatePayloadByProtocol                              
2002e8d8  _unlock                                                    
20028065  abort                                                      
20028659  atoi                                                       
ffffffff  binit                                                      
2002963d  brytarIntX                                                 
20029679  brytarIntY                                                 
2001d9a3  bufferedRecv                                               
200286a5  copy_in                                                    
2002bc8f  copysign                                                   
2002bc8f  copysignl                                                  
2002320d  dataTask                                                   
2002e96c  errno                                                      
2002806d  exit                                                       
2002e895  extremePositions                                           
2001ed51  fetchAndParseData                                          
2002a4a7  ff_memalloc                                                
2002b409  ff_memfree                                                 
2002e894  firstTime                                                  
2002b409  free                                                       
20027961  frexp                                                      
20027961  frexpl                                                     
2002e830  gFirstCmdMode                                              
2002e820  g_H2NCnysPattern                                           
2002e818  g_H2NSyncPattern                                           
2002e828  g_pCB                                                      
2002e8a4  gpioCallbackFunctions                                      
2002e8b0  gpioPinConfigs                                             
2002dc40  inPinTypes                                                 
2002e890  insertPen                                                  
20024585  ldexp                                                      
20024585  ldexpl                                                     
20027f0d  ltoa                                                       
20022405  main                                                       
2002e970  main_func_sp                                               
2002a4a7  malloc                                                     
2002b409  mem_Free                                                   
20022ad5  mem_Malloc                                                 
2002afc1  memccpy                                                    
20025647  memcpy                                                     
20026907  memset                                                     
2001f8a9  moveTask                                                   
20028a31  moveToOrigin                                               
2002e888  originFlagX                                                
2002e88c  originFlagY                                                
200299f5  osi_LockObjCreate                                          
2002bc1f  osi_LockObjDelete                                          
2002934d  osi_LockObjLock                                            
2002ba69  osi_LockObjUnlock                                          
2002a959  osi_Spawn                                                  
2002b699  osi_SyncObjClear                                           
2002938d  osi_SyncObjCreate                                          
2002bc29  osi_SyncObjDelete                                          
2002ba75  osi_SyncObjSignal                                          
2002ba81  osi_SyncObjSignalFromISR                                   
200293cd  osi_SyncObjWait                                            
2002b951  osi_TaskDisable                                            
2002b8d1  osi_start                                                  
2002dc4e  outPinStrengths                                            
2002dc46  outPinTypes                                                
2002e82c  pPingCallBackFunc                                          
20029a2d  pwmDutyDown                                                
2002e220  pwmTimerCC3200HWAttrs                                      
2001c7c0  pwmTimerCC3200Objects                                      
200294d1  realloc                                                    
2002a235  registerInterruptHandler                                   
20024585  scalbn                                                     
20024585  scalbnl                                                    
2001c854  semHandle_ReadWrite                                        
2001c7e0  semStruct_ReadWrite                                        
2002731d  setupHTTPConnection                                        
2001c858  simpleLink_mailbox                                         
2002a97d  sl_Close                                                   
20024e7d  sl_Connect                                                 
200269f1  sl_DevGet                                                  
20029a65  sl_Htonl                                                   
20029e9d  sl_Htons                                                   
20024aed  sl_NetAppDnsGetHostByName                                  
2002657d  sl_NetAppMDNSRegisterUnregisterService                     
2002b7e3  sl_NetAppMDNSUnRegisterService                             
200282fd  sl_NetCfgSet                                               
20028b09  sl_Recv                                                    
200251d9  sl_Send                                                    
200280b5  sl_SetSockOpt                                              
2002a265  sl_Socket                                                  
20025e8d  sl_Start                                                   
200259e9  sl_Stop                                                    
20021c41  sl_WlanConnect                                             
2002bc97  sl_WlanDisconnect                                          
20028f21  sl_WlanPolicySet                                           
2002a9a1  sl_WlanProfileDel                                          
2002944d  sl_WlanRxFilterSet                                         
2002834d  sl_WlanSet                                                 
2002a9c5  sl_WlanSetMode                                             
2002d9c4  spiCC3200DMAHWAttrs                                        
2001c840  spiCC3200DMAscratchBuf                                     
2002b469  spi_Close                                                  
200296f1  spi_Open                                                   
20027385  spi_Read                                                   
200273ed  spi_Write                                                  
2001c848  steps                                                      
2002b5c5  strchr                                                     
2002b451  strcmp                                                     
2002b6c1  strcpy                                                     
2002b6d5  strlen                                                     
2002a89f  strncmp                                                    
20023675  strtoul                                                    
20017c80  task0Stack                                                 
2001b790  task0Struct                                                
20012e60  task1Stack                                                 
2001c6dc  task1Struct                                                
2002e7d8  ti_sysbios_BIOS_Module__state__V                           
2002b233  ti_sysbios_BIOS_RtsGateProxy_Handle__label__S              
2002aac5  ti_sysbios_BIOS_RtsGateProxy_Object__delete__S             
20024975  ti_sysbios_BIOS_RtsGateProxy_enter__E                      
20024dc5  ti_sysbios_BIOS_RtsGateProxy_leave__E                      
2002bd19  ti_sysbios_BIOS_RtsGateProxy_query__E                      
2002a295  ti_sysbios_BIOS_atExitFunc__I                              
2002a9e9  ti_sysbios_BIOS_errorRaiseHook__I                          
2002b5f1  ti_sysbios_BIOS_exitFunc__I                                
2002b8b1  ti_sysbios_BIOS_getCpuFreq__E                              
20023997  ti_sysbios_BIOS_nullFunc__I                                
2002aa0d  ti_sysbios_BIOS_registerRTSLock__I                         
2002aa31  ti_sysbios_BIOS_removeRTSLock__I                           
2002acbd  ti_sysbios_BIOS_rtsLock__I                                 
2002b481  ti_sysbios_BIOS_rtsUnlock__I                               
2002b8c1  ti_sysbios_BIOS_setThreadType__E                           
2002aa55  ti_sysbios_BIOS_startFunc__I                               
2002b8d1  ti_sysbios_BIOS_start__E                                   
2002e2c8  ti_sysbios_family_arm_m3_Hwi_E_NMI__C                      
2002e2cc  ti_sysbios_family_arm_m3_Hwi_E_alreadyDefined__C           
2002e2d0  ti_sysbios_family_arm_m3_Hwi_E_busFault__C                 
2002e2d4  ti_sysbios_family_arm_m3_Hwi_E_debugMon__C                 
2002e2d8  ti_sysbios_family_arm_m3_Hwi_E_hardFault__C                
2002e2dc  ti_sysbios_family_arm_m3_Hwi_E_memFault__C                 
2002e2e0  ti_sysbios_family_arm_m3_Hwi_E_noIsr__C                    
2002e2e4  ti_sysbios_family_arm_m3_Hwi_E_reserved__C                 
2002e2e8  ti_sysbios_family_arm_m3_Hwi_E_svCall__C                   
2002e2ec  ti_sysbios_family_arm_m3_Hwi_E_usageFault__C               
2002b1e5  ti_sysbios_family_arm_m3_Hwi_Handle__label__S              
20029ed1  ti_sysbios_family_arm_m3_Hwi_Instance_finalize__E          
20025cd9  ti_sysbios_family_arm_m3_Hwi_Instance_init__E              
2002e832  ti_sysbios_family_arm_m3_Hwi_Module_State_0_excActive__A   
2002e974  ti_sysbios_family_arm_m3_Hwi_Module_State_0_excContext__A  
2002e978  ti_sysbios_family_arm_m3_Hwi_Module_State_0_excStack__A    
2002dd5e  ti_sysbios_family_arm_m3_Hwi_Module__id__C                 
2002e8ec  ti_sysbios_family_arm_m3_Hwi_Module__root__V               
2002b499  ti_sysbios_family_arm_m3_Hwi_Module__startupDone__F        
2002b499  ti_sysbios_family_arm_m3_Hwi_Module__startupDone__S        
2002e718  ti_sysbios_family_arm_m3_Hwi_Module__state__V              
200283a1  ti_sysbios_family_arm_m3_Hwi_Module_startup__E             
2002e2f0  ti_sysbios_family_arm_m3_Hwi_NUM_INTERRUPTS__C             
2002dff0  ti_sysbios_family_arm_m3_Hwi_Object__DESC__C               
2002dca8  ti_sysbios_family_arm_m3_Hwi_Object__PARAMS__C             
2002e2f4  ti_sysbios_family_arm_m3_Hwi_Object__count__C              
2002afdd  ti_sysbios_family_arm_m3_Hwi_Object__destruct__S           
2002b6e9  ti_sysbios_family_arm_m3_Hwi_Object__get__S                
2002e834  ti_sysbios_family_arm_m3_Hwi_Object__table__V              
2002baa5  ti_sysbios_family_arm_m3_Hwi_Params__init__S               
2002e2f8  ti_sysbios_family_arm_m3_Hwi_ccr__C                        
2002ace1  ti_sysbios_family_arm_m3_Hwi_clearInterrupt__E             
20027eb5  ti_sysbios_family_arm_m3_Hwi_construct                     
2002527d  ti_sysbios_family_arm_m3_Hwi_destruct                      
2002bab1  ti_sysbios_family_arm_m3_Hwi_disableFxn__E                 
20028b51  ti_sysbios_family_arm_m3_Hwi_disableInterrupt__E           
200275f1  ti_sysbios_family_arm_m3_Hwi_dispatchC__I                  
2001bc00  ti_sysbios_family_arm_m3_Hwi_dispatchTable                 
20024655  ti_sysbios_family_arm_m3_Hwi_dispatch__I                   
2002bca1  ti_sysbios_family_arm_m3_Hwi_doSwiRestore__I               
2002aa79  ti_sysbios_family_arm_m3_Hwi_doTaskRestore__I              
20028b99  ti_sysbios_family_arm_m3_Hwi_enableInterrupt__E            
20022291  ti_sysbios_family_arm_m3_Hwi_excBusFault__I                
200248b9  ti_sysbios_family_arm_m3_Hwi_excDebugMon__I                
2001e921  ti_sysbios_family_arm_m3_Hwi_excDumpRegs__I                
2002ad01  ti_sysbios_family_arm_m3_Hwi_excHandlerAsm__I              
2002e2fc  ti_sysbios_family_arm_m3_Hwi_excHandlerFunc__C             
20021119  ti_sysbios_family_arm_m3_Hwi_excHandlerMax__I              
2002ad21  ti_sysbios_family_arm_m3_Hwi_excHandler__I                 
20024979  ti_sysbios_family_arm_m3_Hwi_excHardFault__I               
2002e2a0  ti_sysbios_family_arm_m3_Hwi_excHookFuncs__A               
2002e300  ti_sysbios_family_arm_m3_Hwi_excHookFuncs__C               
20022ad9  ti_sysbios_family_arm_m3_Hwi_excMemFault__I                
20029f09  ti_sysbios_family_arm_m3_Hwi_excNmi__I                     
20029b11  ti_sysbios_family_arm_m3_Hwi_excNoIsr__I                   
20028be1  ti_sysbios_family_arm_m3_Hwi_excReserved__I                
20029731  ti_sysbios_family_arm_m3_Hwi_excSvCall__I                  
20022571  ti_sysbios_family_arm_m3_Hwi_excUsageFault__I              
20028f69  ti_sysbios_family_arm_m3_Hwi_getStackInfo__E               
20026259  ti_sysbios_family_arm_m3_Hwi_initNVIC__E                   
20028c29  ti_sysbios_family_arm_m3_Hwi_initStacks__E                 
2002e304  ti_sysbios_family_arm_m3_Hwi_nullIsrFunc__C                
e000e000  ti_sysbios_family_arm_m3_Hwi_nvic                          
2002b1ff  ti_sysbios_family_arm_m3_Hwi_pendSV__I                     
20026601  ti_sysbios_family_arm_m3_Hwi_postInit__I                   
2002e308  ti_sysbios_family_arm_m3_Hwi_priGroup__C                   
20004000  ti_sysbios_family_arm_m3_Hwi_resetVectors                  
2002bcd9  ti_sysbios_family_arm_m3_Hwi_restoreFxn__E                 
2002b217  ti_sysbios_family_arm_m3_Hwi_return                        
2002bca9  ti_sysbios_family_arm_m3_Hwi_startup__E                    
2002b701  ti_sysbios_family_arm_m3_Hwi_switchFromBootStack__E        
20025cd5  ti_sysbios_family_arm_m3_TaskSupport_Module__startupDone__S
200286f1  ti_sysbios_family_arm_m3_TaskSupport_buildTaskStack        
2002bac1  ti_sysbios_family_arm_m3_TaskSupport_checkStack__E         
2002bad1  ti_sysbios_family_arm_m3_TaskSupport_getStackAlignment__E  
2002b8e1  ti_sysbios_family_arm_m3_TaskSupport_glue                  
2002e30c  ti_sysbios_family_arm_m3_TaskSupport_stackAlignment__C     
2002a2c9  ti_sysbios_family_arm_m3_TaskSupport_start__E              
2002b8f1  ti_sysbios_family_arm_m3_TaskSupport_swap__E               
2002e310  ti_sysbios_family_arm_m3_Timer_E_cannotSupport__C          
2002dfae  ti_sysbios_family_arm_m3_Timer_Module__id__C               
2002b4b1  ti_sysbios_family_arm_m3_Timer_Module__startupDone__F      
2002b4b1  ti_sysbios_family_arm_m3_Timer_Module__startupDone__S      
2002e8bc  ti_sysbios_family_arm_m3_Timer_Module__state__V            
20029491  ti_sysbios_family_arm_m3_Timer_Module_startup__E           
2002e74c  ti_sysbios_family_arm_m3_Timer_Object__table__V            
2002bd09  ti_sysbios_family_arm_m3_Timer_getMaxTicks__E              
20028c71  ti_sysbios_family_arm_m3_Timer_initDevice__I               
20029f41  ti_sysbios_family_arm_m3_Timer_periodicStub__I             
20028741  ti_sysbios_family_arm_m3_Timer_setPeriodMicroSecs__E       
20028109  ti_sysbios_family_arm_m3_Timer_setPeriod__E                
20028161  ti_sysbios_family_arm_m3_Timer_start__E                    
2002e314  ti_sysbios_family_arm_m3_Timer_startupNeeded__C            
2002aaa1  ti_sysbios_family_arm_m3_Timer_startup__E                  
2002aff9  ti_sysbios_family_arm_m3_Timer_stop__E                     
2002af15  ti_sysbios_family_xxx_Hwi_switchAndRunFunc                 
2002b219  ti_sysbios_gates_GateHwi_Handle__label__S                  
2002bd31  ti_sysbios_gates_GateHwi_Instance_init__E                  
2002deb4  ti_sysbios_gates_GateHwi_Module__FXNS__C                   
2002e8f4  ti_sysbios_gates_GateHwi_Module__root__V                   
2002e010  ti_sysbios_gates_GateHwi_Object__DESC__C                   
2002e158  ti_sysbios_gates_GateHwi_Object__PARAMS__C                 
2002a2f9  ti_sysbios_gates_GateHwi_Object__create__S                 
2002ad41  ti_sysbios_gates_GateHwi_Object__delete__S                 
2002e97c  ti_sysbios_gates_GateHwi_Object__table__V                  
2002bae1  ti_sysbios_gates_GateHwi_enter__E                          
2002bce1  ti_sysbios_gates_GateHwi_leave__E                          
2002bd11  ti_sysbios_gates_GateHwi_query__E                          
2002e318  ti_sysbios_gates_GateMutex_A_badContext__C                 
2002b233  ti_sysbios_gates_GateMutex_Handle__label__S                
2002e31c  ti_sysbios_gates_GateMutex_Instance_State_sem__O           
2002b901  ti_sysbios_gates_GateMutex_Instance_finalize__E            
2002b019  ti_sysbios_gates_GateMutex_Instance_init__E                
2002ded8  ti_sysbios_gates_GateMutex_Module__FXNS__C                 
2002e320  ti_sysbios_gates_GateMutex_Module__diagsEnabled__C         
2002e324  ti_sysbios_gates_GateMutex_Module__diagsIncluded__C        
2002e328  ti_sysbios_gates_GateMutex_Module__diagsMask__C            
2002e29e  ti_sysbios_gates_GateMutex_Module__id__C                   
2002e8fc  ti_sysbios_gates_GateMutex_Module__root__V                 
2002e030  ti_sysbios_gates_GateMutex_Object__DESC__C                 
2002e170  ti_sysbios_gates_GateMutex_Object__PARAMS__C               
2002a329  ti_sysbios_gates_GateMutex_Object__create__S               
2002aac5  ti_sysbios_gates_GateMutex_Object__delete__S               
2002e6e0  ti_sysbios_gates_GateMutex_Object__table__V                
20024d11  ti_sysbios_gates_GateMutex_enter__E                        
2002b4c9  ti_sysbios_gates_GateMutex_leave__E                        
2002bd19  ti_sysbios_gates_GateMutex_query__E                        
2002e32c  ti_sysbios_hal_Hwi_E_stackOverflow__C                      
2002b1e5  ti_sysbios_hal_Hwi_HwiProxy_Handle__label__S               
2002b499  ti_sysbios_hal_Hwi_HwiProxy_Module__startupDone__S         
2002baa5  ti_sysbios_hal_Hwi_HwiProxy_Params__init__S                
2002ace1  ti_sysbios_hal_Hwi_HwiProxy_clearInterrupt__E              
20028b51  ti_sysbios_hal_Hwi_HwiProxy_disableInterrupt__E            
2002bab1  ti_sysbios_hal_Hwi_HwiProxy_disable__E                     
20028b99  ti_sysbios_hal_Hwi_HwiProxy_enableInterrupt__E             
20028f69  ti_sysbios_hal_Hwi_HwiProxy_getStackInfo__E                
2002bcd9  ti_sysbios_hal_Hwi_HwiProxy_restore__E                     
2002bca9  ti_sysbios_hal_Hwi_HwiProxy_startup__E                     
2002b701  ti_sysbios_hal_Hwi_HwiProxy_switchFromBootStack__E         
2002e494  ti_sysbios_hal_Hwi_Module__id__C                           
2002b7f9  ti_sysbios_hal_Hwi_Module_startup__E                       
20029f79  ti_sysbios_hal_Hwi_checkStack                              
2002a0b1  ti_sysbios_hal_Hwi_initStack                               
2002e330  ti_sysbios_heaps_HeapMem_A_align__C                        
2002e334  ti_sysbios_heaps_HeapMem_A_heapSize__C                     
2002e338  ti_sysbios_heaps_HeapMem_A_invalidFree__C                  
2002e33c  ti_sysbios_heaps_HeapMem_A_zeroBlock__C                    
2002e340  ti_sysbios_heaps_HeapMem_E_memory__C                       
2002b24d  ti_sysbios_heaps_HeapMem_Handle__label__S                  
2001a390  ti_sysbios_heaps_HeapMem_Instance_State_0_buf__A           
20022c21  ti_sysbios_heaps_HeapMem_Instance_init__E                  
2002b233  ti_sysbios_heaps_HeapMem_Module_GateProxy_Handle__label__S 
2002aac5  ti_sysbios_heaps_HeapMem_Module_GateProxy_Object__delete__S
20025f1d  ti_sysbios_heaps_HeapMem_Module_GateProxy_enter__E         
20026bcd  ti_sysbios_heaps_HeapMem_Module_GateProxy_leave__E         
2002bd19  ti_sysbios_heaps_HeapMem_Module_GateProxy_query__E         
2002ddd8  ti_sysbios_heaps_HeapMem_Module__FXNS__C                   
2002e344  ti_sysbios_heaps_HeapMem_Module__diagsEnabled__C           
2002e348  ti_sysbios_heaps_HeapMem_Module__diagsIncluded__C          
2002e34c  ti_sysbios_heaps_HeapMem_Module__diagsMask__C              
2002e350  ti_sysbios_heaps_HeapMem_Module__gateObj__C                
2002e496  ti_sysbios_heaps_HeapMem_Module__id__C                     
2002e904  ti_sysbios_heaps_HeapMem_Module__root__V                   
2002e050  ti_sysbios_heaps_HeapMem_Object__DESC__C                   
2002defc  ti_sysbios_heaps_HeapMem_Object__PARAMS__C                 
2002e354  ti_sysbios_heaps_HeapMem_Object__count__C                  
2002a359  ti_sysbios_heaps_HeapMem_Object__create__S                 
2002ad61  ti_sysbios_heaps_HeapMem_Object__delete__S                 
2002b715  ti_sysbios_heaps_HeapMem_Object__get__S                    
2002e84c  ti_sysbios_heaps_HeapMem_Object__table__V                  
20020a99  ti_sysbios_heaps_HeapMem_alloc__E                          
20020841  ti_sysbios_heaps_HeapMem_free__E                           
20028791  ti_sysbios_heaps_HeapMem_getStats__E                       
20029771  ti_sysbios_heaps_HeapMem_init__I                           
2002bce9  ti_sysbios_heaps_HeapMem_isBlocking__E                     
2002e358  ti_sysbios_heaps_HeapMem_reqAlign__C                       
2002e35c  ti_sysbios_knl_Clock_A_badThreadType__C                    
20025281  ti_sysbios_knl_Clock_Instance_finalize__E                  
20023329  ti_sysbios_knl_Clock_Instance_init__E                      
2002e360  ti_sysbios_knl_Clock_Module_State_clockQ__O                
2002e364  ti_sysbios_knl_Clock_Module__diagsEnabled__C               
2002e368  ti_sysbios_knl_Clock_Module__diagsIncluded__C              
2002e36c  ti_sysbios_knl_Clock_Module__diagsMask__C                  
2002e498  ti_sysbios_knl_Clock_Module__id__C                         
2002e90c  ti_sysbios_knl_Clock_Module__root__V                       
2002e7ac  ti_sysbios_knl_Clock_Module__state__V                      
2002aae9  ti_sysbios_knl_Clock_Module_startup__E                     
2002e070  ti_sysbios_knl_Clock_Object__DESC__C                       
2002df20  ti_sysbios_knl_Clock_Object__PARAMS__C                     
2002ad81  ti_sysbios_knl_Clock_Object__destruct__S                   
2002baed  ti_sysbios_knl_Clock_Params__init__S                       
2002b4b1  ti_sysbios_knl_Clock_TimerProxy_Module__startupDone__S     
20026d95  ti_sysbios_knl_Clock_TimerProxy_getMaxTicks__E             
20026fbd  ti_sysbios_knl_Clock_TimerProxy_setPeriodMicroSecs__E      
2002702d  ti_sysbios_knl_Clock_TimerProxy_start__E                   
2002aaa1  ti_sysbios_knl_Clock_TimerProxy_startup__E                 
200275ed  ti_sysbios_knl_Clock_TimerProxy_stop__E                    
20029fad  ti_sysbios_knl_Clock_construct                             
200279bd  ti_sysbios_knl_Clock_destruct                              
2002a589  ti_sysbios_knl_Clock_doTick__I                             
200297b1  ti_sysbios_knl_Clock_getTicksUntilTimeout__E               
2002baf9  ti_sysbios_knl_Clock_getTicks__E                           
2002bd39  ti_sysbios_knl_Clock_logTick__E                            
2002bb09  ti_sysbios_knl_Clock_setTicks__E                           
2002bd21  ti_sysbios_knl_Clock_setTimeout__E                         
20026bd1  ti_sysbios_knl_Clock_start__E                              
2002bcf1  ti_sysbios_knl_Clock_stop__E                               
2002d643  ti_sysbios_knl_Clock_tickMode__C                           
2002e370  ti_sysbios_knl_Clock_tickPeriod__C                         
2002b729  ti_sysbios_knl_Clock_tickReconfig__E                       
2002e4b2  ti_sysbios_knl_Clock_tickSource__C                         
2002bb19  ti_sysbios_knl_Clock_tickStart__E                          
2002bb29  ti_sysbios_knl_Clock_tickStop__E                           
200297b1  ti_sysbios_knl_Clock_walkQueuePeriodic__E                  
20026f51  ti_sysbios_knl_Clock_workFunc__E                           
2002e2a8  ti_sysbios_knl_Idle_funcList__A                            
2002e2b0  ti_sysbios_knl_Idle_funcList__C                            
2002b9e9  ti_sysbios_knl_Idle_loop__E                                
2002ada1  ti_sysbios_knl_Idle_run__E                                 
2002e374  ti_sysbios_knl_Mailbox_A_invalidBufSize__C                 
2002e378  ti_sysbios_knl_Mailbox_Instance_State_dataQue__O           
2002e37c  ti_sysbios_knl_Mailbox_Instance_State_dataSem__O           
2002e380  ti_sysbios_knl_Mailbox_Instance_State_freeQue__O           
2002e384  ti_sysbios_knl_Mailbox_Instance_State_freeSem__O           
20026d99  ti_sysbios_knl_Mailbox_Instance_finalize__E                
200226d9  ti_sysbios_knl_Mailbox_Instance_init__E                    
2002e388  ti_sysbios_knl_Mailbox_Module__diagsEnabled__C             
2002e38c  ti_sysbios_knl_Mailbox_Module__diagsIncluded__C            
2002e390  ti_sysbios_knl_Mailbox_Module__diagsMask__C                
2002e49a  ti_sysbios_knl_Mailbox_Module__id__C                       
2002e914  ti_sysbios_knl_Mailbox_Module__root__V                     
200262e1  ti_sysbios_knl_Mailbox_Module_startup__E                   
2002e090  ti_sysbios_knl_Mailbox_Object__DESC__C                     
2002dc74  ti_sysbios_knl_Mailbox_Object__PARAMS__C                   
2002e394  ti_sysbios_knl_Mailbox_Object__count__C                    
2002adc1  ti_sysbios_knl_Mailbox_Object__delete__S                   
2002b911  ti_sysbios_knl_Mailbox_Object__get__S                      
20027655  ti_sysbios_knl_Mailbox_create                              
20027a1d  ti_sysbios_knl_Mailbox_delete                              
2002e398  ti_sysbios_knl_Mailbox_maxTypeAlign__C                     
20025f21  ti_sysbios_knl_Mailbox_pend__E                             
20028fb1  ti_sysbios_knl_Mailbox_postInit__I                         
20025a81  ti_sysbios_knl_Mailbox_post__E                             
2002bcf9  ti_sysbios_knl_Queue_Instance_init__E                      
2002e91c  ti_sysbios_knl_Queue_Module__root__V                       
2002e0b0  ti_sysbios_knl_Queue_Object__DESC__C                       
2002e188  ti_sysbios_knl_Queue_Object__PARAMS__C                     
2002b035  ti_sysbios_knl_Queue_Object__destruct__S                   
2002bb35  ti_sysbios_knl_Queue_Object__get__S                        
2002a5b5  ti_sysbios_knl_Queue_construct                             
20027a7d  ti_sysbios_knl_Queue_destruct                              
2002b9f9  ti_sysbios_knl_Queue_empty__E                              
2002e39c  ti_sysbios_knl_Semaphore_A_badContext__C                   
2002e3a0  ti_sysbios_knl_Semaphore_A_noEvents__C                     
2002e3a4  ti_sysbios_knl_Semaphore_A_overflow__C                     
2002e3a8  ti_sysbios_knl_Semaphore_A_pendTaskDisabled__C             
2002e3ac  ti_sysbios_knl_Semaphore_Instance_State_pendQ__O           
2002b921  ti_sysbios_knl_Semaphore_Instance_finalize__E              
200256e9  ti_sysbios_knl_Semaphore_Instance_init__E                  
2002e3b0  ti_sysbios_knl_Semaphore_Module__diagsEnabled__C           
2002e3b4  ti_sysbios_knl_Semaphore_Module__diagsIncluded__C          
2002e3b8  ti_sysbios_knl_Semaphore_Module__diagsMask__C              
2002e49c  ti_sysbios_knl_Semaphore_Module__id__C                     
2002e924  ti_sysbios_knl_Semaphore_Module__root__V                   
2002e0d0  ti_sysbios_knl_Semaphore_Object__DESC__C                   
2002df44  ti_sysbios_knl_Semaphore_Object__PARAMS__C                 
2002ab0d  ti_sysbios_knl_Semaphore_Object__delete__S                 
2002ade1  ti_sysbios_knl_Semaphore_Object__destruct__S               
2002bb41  ti_sysbios_knl_Semaphore_Params__init__S                   
2002a389  ti_sysbios_knl_Semaphore_construct                         
20029fe1  ti_sysbios_knl_Semaphore_create                            
2002815d  ti_sysbios_knl_Semaphore_delete                            
2002839d  ti_sysbios_knl_Semaphore_destruct                          
2002a3b9  ti_sysbios_knl_Semaphore_pendTimeout__I                    
20020581  ti_sysbios_knl_Semaphore_pend__E                           
20024061  ti_sysbios_knl_Semaphore_post__E                           
2002b267  ti_sysbios_knl_Swi_Handle__label__S                        
2002e4b4  ti_sysbios_knl_Swi_Module_State_0_readyQ__A                
2002e7fc  ti_sysbios_knl_Swi_Module__state__V                        
2002a829  ti_sysbios_knl_Swi_Module_startup__E                       
2002e3bc  ti_sysbios_knl_Swi_Object__count__C                        
2002b73d  ti_sysbios_knl_Swi_Object__get__S                          
2002e77c  ti_sysbios_knl_Swi_Object__table__V                        
2002b931  ti_sysbios_knl_Swi_disable__E                              
20028ff9  ti_sysbios_knl_Swi_post__E                                 
20026fc1  ti_sysbios_knl_Swi_restoreHwi__E                           
200297f1  ti_sysbios_knl_Swi_restore__E                              
200287e1  ti_sysbios_knl_Swi_runLoop__I                              
200279c1  ti_sysbios_knl_Swi_run__I                                  
20027a21  ti_sysbios_knl_Swi_schedule__I                             
2002bd01  ti_sysbios_knl_Swi_startup__E                              
2002e3c0  ti_sysbios_knl_Task_A_badPriority__C                       
2002e3c4  ti_sysbios_knl_Task_A_badTaskState__C                      
2002e3c8  ti_sysbios_knl_Task_A_badThreadType__C                     
2002e3cc  ti_sysbios_knl_Task_A_badTimeout__C                        
2002e3d0  ti_sysbios_knl_Task_A_noPendElem__C                        
2002e3d4  ti_sysbios_knl_Task_A_sleepTaskDisabled__C                 
2002e3d8  ti_sysbios_knl_Task_E_spOutOfBounds__C                     
2002e3dc  ti_sysbios_knl_Task_E_stackOverflow__C                     
2002b281  ti_sysbios_knl_Task_Handle__label__S                       
2001bf10  ti_sysbios_knl_Task_Instance_State_0_stack__A              
20020ce1  ti_sysbios_knl_Task_Instance_finalize__E                   
200218c1  ti_sysbios_knl_Task_Instance_init__E                       
2002e980  ti_sysbios_knl_Task_Module_State_0_idleTask__A             
2002e534  ti_sysbios_knl_Task_Module_State_0_readyQ__A               
2002e3e0  ti_sysbios_knl_Task_Module_State_inactiveQ__O              
2002e3e4  ti_sysbios_knl_Task_Module__diagsEnabled__C                
2002e3e8  ti_sysbios_knl_Task_Module__diagsIncluded__C               
2002e3ec  ti_sysbios_knl_Task_Module__diagsMask__C                   
2002e49e  ti_sysbios_knl_Task_Module__id__C                          
2002e92c  ti_sysbios_knl_Task_Module__root__V                        
2002e69c  ti_sysbios_knl_Task_Module__state__V                       
20027a81  ti_sysbios_knl_Task_Module_startup__E                      
2002e0f0  ti_sysbios_knl_Task_Object__DESC__C                        
2002db98  ti_sysbios_knl_Task_Object__PARAMS__C                      
2002e3f0  ti_sysbios_knl_Task_Object__count__C                       
2002ae01  ti_sysbios_knl_Task_Object__delete__S                      
2002b941  ti_sysbios_knl_Task_Object__get__S                         
2002e608  ti_sysbios_knl_Task_Object__table__V                       
2002bb59  ti_sysbios_knl_Task_Params__init__S                        
20025cd5  ti_sysbios_knl_Task_SupportProxy_Module__startupDone__S    
2002bac1  ti_sysbios_knl_Task_SupportProxy_checkStack__E             
2002bad1  ti_sysbios_knl_Task_SupportProxy_getStackAlignment__E      
2002a2c9  ti_sysbios_knl_Task_SupportProxy_start__E                  
2002b8f1  ti_sysbios_knl_Task_SupportProxy_swap__E                   
2002e3f4  ti_sysbios_knl_Task_allBlockedFunc__C                      
20028831  ti_sysbios_knl_Task_allBlockedFunction__I                  
20024dc9  ti_sysbios_knl_Task_checkStacks__E                         
200281b5  ti_sysbios_knl_Task_construct                              
20027add  ti_sysbios_knl_Task_create                                 
2002e3f8  ti_sysbios_knl_Task_defaultStackHeap__C                    
2002e3fc  ti_sysbios_knl_Task_defaultStackSize__C                    
2002873d  ti_sysbios_knl_Task_delete                                 
2002b951  ti_sysbios_knl_Task_disable__E                             
2002b051  ti_sysbios_knl_Task_enter__I                               
20027031  ti_sysbios_knl_Task_exit__E                                
2002e400  ti_sysbios_knl_Task_numConstructedTasks__C                 
20025131  ti_sysbios_knl_Task_postInit__I                            
20029b49  ti_sysbios_knl_Task_processVitalTaskFlag__I                
2002a5e1  ti_sysbios_knl_Task_restore__E                             
200278a1  ti_sysbios_knl_Task_schedule__I                            
2002b4e1  ti_sysbios_knl_Task_sleepTimeout__I                        
20021509  ti_sysbios_knl_Task_sleep__E                               
20027b39  ti_sysbios_knl_Task_startCore__E                           
2002bd29  ti_sysbios_knl_Task_startup__E                             
2002b8f9  ti_sysbios_knl_Task_swapReturn                             
2002a3e9  ti_sysbios_knl_Task_unblockI__E                            
2002887d  uDMAChannelAssign                                          
200276b9  uDMAChannelAttributeDisable                                
2002982d  uDMAChannelControlSet                                      
2002b06d  uDMAChannelEnable                                          
2002a851  uDMAChannelIsEnabled                                       
20023e85  uDMAChannelTransferSet                                     
2002bb65  uDMAControlBaseGet                                         
2002b751  uDMAControlBaseSet                                         
2002bb71  uDMAEnable                                                 
2002bb7d  uDMAErrorStatusClear                                       
2002bb89  uDMAIntStatus                                              
2002dcd8  uartCC3200HWAttrs                                          
2001c55c  uartCC3200Objects                                          
2001c72c  uartCC3200RingBuffer                                       
2002709d  unPackData                                                 
20026149  vsnprintf                                                  
2002e404  wiFiCC3200HWAttrs                                          
2001c76c  wiFiCC3200Objects                                          
20024ba5  wlanConnect                                                
20026a69  wlanStart                                                  
2002e408  xdc_runtime_Assert_E_assertFailed__C                       
20028209  xdc_runtime_Assert_raise__I                                
2002e40c  xdc_runtime_Core_A_initializedParams__C                    
2002e410  xdc_runtime_Core_Module__diagsEnabled__C                   
2002e414  xdc_runtime_Core_Module__diagsIncluded__C                  
2002e418  xdc_runtime_Core_Module__diagsMask__C                      
2002e4a0  xdc_runtime_Core_Module__id__C                             
2002a015  xdc_runtime_Core_assignLabel__I                            
20028cff  xdc_runtime_Core_assignParams__I                           
20024725  xdc_runtime_Core_constructObject__I                        
20023999  xdc_runtime_Core_createObject__I                           
200274bd  xdc_runtime_Core_deleteObject__I                           
2002e41c  xdc_runtime_Error_E_memory__C                              
2002e420  xdc_runtime_Error_Module__diagsEnabled__C                  
2002e424  xdc_runtime_Error_Module__diagsIncluded__C                 
2002e428  xdc_runtime_Error_Module__diagsMask__C                     
2002e4a2  xdc_runtime_Error_Module__loggerDefined__C                 
2002e42c  xdc_runtime_Error_Module__loggerFxn8__C                    
2002e430  xdc_runtime_Error_Module__loggerObj__C                     
2002e896  xdc_runtime_Error_Module__state__V                         
2002b4f9  xdc_runtime_Error_check__E                                 
2002878d  xdc_runtime_Error_getSite__E                               
2002bb95  xdc_runtime_Error_init__E                                  
2002e4a4  xdc_runtime_Error_maxDepth__C                              
2002355d  xdc_runtime_Error_policyDefault__E                         
2002e434  xdc_runtime_Error_policyFxn__C                             
2002e4b3  xdc_runtime_Error_policy__C                                
20027109  xdc_runtime_Error_print__E                                 
2002e438  xdc_runtime_Error_raiseHook__C                             
2002b0a5  xdc_runtime_Error_raiseX__E                                
2002903d  xdc_runtime_Error_setX__E                                  
2002bba1  xdc_runtime_Gate_enterSystem__E                            
2002b961  xdc_runtime_Gate_leaveSystem__E                            
2002e43c  xdc_runtime_IGateProvider_Interface__BASE__C               
2002e440  xdc_runtime_IHeap_Interface__BASE__C                       
2002e444  xdc_runtime_IModule_Interface__BASE__C                     
2002e448  xdc_runtime_Log_L_error__C                                 
2002b219  xdc_runtime_Main_Module_GateProxy_Handle__label__S         
2002ad41  xdc_runtime_Main_Module_GateProxy_Object__delete__S        
2002bd11  xdc_runtime_Main_Module_GateProxy_query__E                 
2002b24d  xdc_runtime_Memory_HeapProxy_Handle__label__S              
2002ad61  xdc_runtime_Memory_HeapProxy_Object__delete__S             
2002bc33  xdc_runtime_Memory_HeapProxy_alloc__E                      
2002bc3d  xdc_runtime_Memory_HeapProxy_free__E                       
2002e4a6  xdc_runtime_Memory_Module__id__C                           
2002e984  xdc_runtime_Memory_Module__state__V                        
20027175  xdc_runtime_Memory_alloc__E                                
2002bbad  xdc_runtime_Memory_calloc__E                               
2002e44c  xdc_runtime_Memory_defaultHeapInstance__C                  
2002b971  xdc_runtime_Memory_free__E                                 
2002bbb9  xdc_runtime_Memory_getMaxDefaultTypeAlign__E               
2002b0c1  xdc_runtime_Memory_valloc__E                               
2002e934  xdc_runtime_Registry_Module__state__V                      
2002ae21  xdc_runtime_Registry_findById__E                           
2002e93c  xdc_runtime_Startup_Module__state__V                       
00000001  xdc_runtime_Startup__EXECFXN__C                            
00000001  xdc_runtime_Startup__RESETFXN__C                           
2002e450  xdc_runtime_Startup_execImpl__C                            
200283f1  xdc_runtime_Startup_exec__E                                
2002b80b  xdc_runtime_Startup_exec__I                                
2002e270  xdc_runtime_Startup_firstFxns__A                           
2002e2b8  xdc_runtime_Startup_firstFxns__C                           
2002e2c0  xdc_runtime_Startup_lastFxns__C                            
2002e454  xdc_runtime_Startup_maxPasses__C                           
20023c93  xdc_runtime_Startup_reset__I                               
2002e1ee  xdc_runtime_Startup_sfxnRts__A                             
2002e458  xdc_runtime_Startup_sfxnRts__C                             
2002df68  xdc_runtime_Startup_sfxnTab__A                             
2002e45c  xdc_runtime_Startup_sfxnTab__C                             
20023c95  xdc_runtime_Startup_startMods__I                           
2001c110  xdc_runtime_SysMin_Module_State_0_outbuf__A                
2002e8c8  xdc_runtime_SysMin_Module__state__V                        
2002ae41  xdc_runtime_SysMin_Module_startup__E                       
2002a419  xdc_runtime_SysMin_abort__E                                
2002e460  xdc_runtime_SysMin_bufSize__C                              
2002b0dd  xdc_runtime_SysMin_exit__E                                 
2002e4a8  xdc_runtime_SysMin_flushAtExit__C                          
20029081  xdc_runtime_SysMin_flush__E                                
2002e464  xdc_runtime_SysMin_outputFunc__C                           
2002abbb  xdc_runtime_SysMin_output__I                               
20029b81  xdc_runtime_SysMin_putch__E                                
2002b981  xdc_runtime_SysMin_ready__E                                
2002b219  xdc_runtime_System_Module_GateProxy_Handle__label__S       
2002ad41  xdc_runtime_System_Module_GateProxy_Object__delete__S      
200287dd  xdc_runtime_System_Module_GateProxy_enter__E               
2002882d  xdc_runtime_System_Module_GateProxy_leave__E               
2002bd11  xdc_runtime_System_Module_GateProxy_query__E               
2002e944  xdc_runtime_System_Module_State_0_atexitHandlers__A        
2002e468  xdc_runtime_System_Module__gateObj__C                      
2002e94c  xdc_runtime_System_Module__state__V                        
2002bcd3  xdc_runtime_System_Module_startup__E                       
2002a419  xdc_runtime_System_SupportProxy_abort__E                   
2002b0dd  xdc_runtime_System_SupportProxy_exit__E                    
20029081  xdc_runtime_System_SupportProxy_flush__E                   
20029b81  xdc_runtime_System_SupportProxy_putch__E                   
2002b981  xdc_runtime_System_SupportProxy_ready__E                   
2002e46c  xdc_runtime_System_abortFxn__C                             
20028065  xdc_runtime_System_abortStd__E                             
2002b0f9  xdc_runtime_System_abort__E                                
2002b29b  xdc_runtime_System_aprintf__E                              
20028f65  xdc_runtime_System_aprintf_va__F                           
20029bb9  xdc_runtime_System_atexit__E                               
2002a8c5  xdc_runtime_System_avprintf__E                             
2001fc21  xdc_runtime_System_doPrint__I                              
2002e470  xdc_runtime_System_exitFxn__C                              
2002806d  xdc_runtime_System_exitStd__E                              
2002b511  xdc_runtime_System_exit__E                                 
2002e474  xdc_runtime_System_extendFxn__C                            
20026e09  xdc_runtime_System_formatNum__I                            
2002e478  xdc_runtime_System_maxAtexitHandlers__C                    
20023d8d  xdc_runtime_System_printfExtend__I                         
2002b2b5  xdc_runtime_System_printf__E                               
20028fad  xdc_runtime_System_printf_va__F                            
2002a449  xdc_runtime_System_processAtExit__E                        
2002a735  xdc_runtime_System_putchar__I                              
2002ab31  xdc_runtime_System_vprintf__E                              
2002b991  xdc_runtime_System_vsnprintf__E                            
2002e4aa  xdc_runtime_Text_charCnt__C                                
2002bd3c  xdc_runtime_Text_charTab__A                                
2002e47c  xdc_runtime_Text_charTab__C                                
2002a60d  xdc_runtime_Text_cordText__E                               
2002e4ac  xdc_runtime_Text_isLoaded__C                               
2002e480  xdc_runtime_Text_nameEmpty__C                              
2002e484  xdc_runtime_Text_nameStatic__C                             
2002e488  xdc_runtime_Text_nameUnknown__C                            
2002d89c  xdc_runtime_Text_nodeTab__A                                
2002e48c  xdc_runtime_Text_nodeTab__C                                
2002a049  xdc_runtime_Text_printVisFxn__I                            
20027b95  xdc_runtime_Text_putLab__E                                 
20025509  xdc_runtime_Text_putMod__E                                 
20025785  xdc_runtime_Text_putSite__E                                
2002e4ae  xdc_runtime_Text_registryModsLastId__C                     
2002b529  xdc_runtime_Text_ropeText__E                               
2002e4b0  xdc_runtime_Text_unnamedModsLastId__C                      
20028441  xdc_runtime_Text_visitRope2__I                             
2002e490  xdc_runtime_Text_visitRopeFxn__C                           
2002b9a1  xdc_runtime_Text_visitRope__I                              
200290c5  xdc_runtime_Text_xprintf__I                                


GLOBAL SYMBOLS: SORTED BY Symbol Address 

address   name                                                       
-------   ----                                                       
00000000  __ASM__                                                    
00000001  xdc_runtime_Startup__EXECFXN__C                            
00000001  xdc_runtime_Startup__RESETFXN__C                           
0000006d  __ISA__                                                    
00000080  __PLAT__                                                   
000000a7  __TARG__                                                   
000000cc  __TRDR__                                                   
00000300  __STACK_SIZE                                               
20004000  ti_sysbios_family_arm_m3_Hwi_resetVectors                  
20012e60  task1Stack                                                 
20017c80  task0Stack                                                 
2001a390  ti_sysbios_heaps_HeapMem_Instance_State_0_buf__A           
2001b790  task0Struct                                                
2001bc00  ti_sysbios_family_arm_m3_Hwi_dispatchTable                 
2001bf10  ti_sysbios_knl_Task_Instance_State_0_stack__A              
2001c110  xdc_runtime_SysMin_Module_State_0_outbuf__A                
2001c310  PowerCC3200_contextSave                                    
2001c43c  __CIOBUF_                                                  
2001c55c  uartCC3200Objects                                          
2001c664  SPICC3200DMAObjects                                        
2001c6dc  task1Struct                                                
2001c72c  uartCC3200RingBuffer                                       
2001c76c  wiFiCC3200Objects                                          
2001c7c0  pwmTimerCC3200Objects                                      
2001c7e0  semStruct_ReadWrite                                        
2001c834  SimpleLinkSpawnTaskHndl                                    
2001c840  spiCC3200DMAscratchBuf                                     
2001c848  steps                                                      
2001c854  semHandle_ReadWrite                                        
2001c858  simpleLink_mailbox                                         
2001c85c  RxIrqCnt                                                   
2001d657  __TI_printfi                                               
2001d9a3  bufferedRecv                                               
2001e179  HTTPCli_initSockAddr                                       
2001e287  HTTPCli_connect                                            
2001e3a9  HTTPCli_construct                                          
2001e3f1  HTTPCli_create                                             
2001e409  HTTPCli_delete                                             
2001e43f  HTTPCli_destruct                                           
2001e487  HTTPCli_disconnect                                         
2001e4bd  HTTPCli_setRequestFields                                   
2001e4e3  HTTPCli_setResponseFields                                  
2001e509  HTTPCli_setSecureParams                                    
2001e529  HTTPCli_sendRequest                                        
2001e5f7  HTTPCli_sendField                                          
2001e64f  HTTPCli_sendRequestBody                                    
2001e687  HTTPCli_getResponseStatus                                  
2001e6bd  HTTPCli_getResponseField                                   
2001e841  HTTPCli_readResponseBody                                   
2001e8cd  HTTPCli_readRawResponseBody                                
2001e90d  HTTPCli_setProxy                                           
2001e921  ti_sysbios_family_arm_m3_Hwi_excDumpRegs__I                
2001ed51  fetchAndParseData                                          
2001f50d  _SlDrvMsgRead                                              
2001f8a7  SPICC3200DMA_serviceISR                                    
2001f8a9  moveTask                                                   
2001fc21  xdc_runtime_System_doPrint__I                              
2001ff6d  HOSTwrite                                                  
2001ffb9  HOSTunlink                                                 
2001fff1  HOSTtime64                                                 
2002003b  HOSTtime                                                   
20020075  HOSTrename                                                 
200200d3  HOSTread                                                   
2002011f  HOSTopen                                                   
20020171  HOSTlseek                                                  
200201cd  HOSTgetenv                                                 
2002020b  HOSTclose                                                  
20020243  HOSTclock                                                  
200202a9  Ssock_construct                                            
200202e9  Ssock_create                                               
20020303  Ssock_delete                                               
2002032b  Ssock_destruct                                             
2002037d  Ssock_getSocket                                            
2002038b  Ssock_recv                                                 
200203e5  Ssock_recvall                                              
20020429  Ssock_send                                                 
20020543  Ssock_startSecure                                          
2002057b  PWMTimerCC3200_getPeriodMicroSecs                          
20020581  ti_sysbios_knl_Semaphore_pend__E                           
20020841  ti_sysbios_heaps_HeapMem_free__E                           
20020a95  ClockP_getCpuFreq                                          
20020a99  ti_sysbios_heaps_HeapMem_alloc__E                          
20020ce1  ti_sysbios_knl_Task_Instance_finalize__E                   
20020f0d  UARTCC3200_open                                            
20021115  HwiP_clearInterrupt                                        
20021119  ti_sysbios_family_arm_m3_Hwi_excHandlerMax__I              
20021315  __aeabi_uldivmod                                           
20021509  ti_sysbios_knl_Task_sleep__E                               
200216e9  SimpleLinkWlanEventHandler                                 
200218bd  HwiP_disable                                               
200218c1  ti_sysbios_knl_Task_Instance_init__E                       
20021a89  __aeabi_dsub                                               
20021a93  __aeabi_dadd                                               
20021c3f  SPICC3200DMA_transferCancel                                
20021c41  sl_WlanConnect                                             
20021f8d  PowerCC3200_sleepPolicy                                    
20022115  GPIO_setConfig                                             
20022291  ti_sysbios_family_arm_m3_Hwi_excBusFault__I                
20022405  main                                                       
2002256d  List_head                                                  
20022571  ti_sysbios_family_arm_m3_Hwi_excUsageFault__I              
200226d5  List_next                                                  
200226d9  ti_sysbios_knl_Mailbox_Instance_init__E                    
20022831  SPICC3200DMA_transfer                                      
20022985  _SlDrvRxHdrRead                                            
20022ad5  mem_Malloc                                                 
20022ad9  ti_sysbios_family_arm_m3_Hwi_excMemFault__I                
20022c21  ti_sysbios_heaps_HeapMem_Instance_init__E                  
20022d5d  __aeabi_ddiv                                               
20022e93  __aeabi_idiv0                                              
20022e95  PRCMCC3200MCUInit                                          
20022fc9  SPICC3200DMA_open                                          
2002320d  dataTask                                                   
20023329  ti_sysbios_knl_Clock_Instance_init__E                      
20023445  _SlDrvMsgWrite                                             
2002355d  xdc_runtime_Error_policyDefault__E                         
20023675  strtoul                                                    
20023789  SimpleLinkNetAppEventHandler                               
20023895  PinMuxConfig                                               
20023997  ti_sysbios_BIOS_nullFunc__I                                
20023999  xdc_runtime_Core_createObject__I                           
20023a99  SimpleLinkSockEventHandler                                 
20023b97  __aeabi_dmul                                               
20023c93  xdc_runtime_Startup_reset__I                               
20023c95  xdc_runtime_Startup_startMods__I                           
20023d8d  xdc_runtime_System_printfExtend__I                         
20023e85  uDMAChannelTransferSet                                     
20023f75  _SlDrvDriverCBInit                                         
20024061  ti_sysbios_knl_Semaphore_post__E                           
2002414d  PWMTimerCC3200_open                                        
2002422d  _SlDrvDataReadOp                                           
200243e5  _SlDrvWaitForPoolObj                                       
20024585  ldexp                                                      
20024585  ldexpl                                                     
20024585  scalbn                                                     
20024585  scalbnl                                                    
20024655  ti_sysbios_family_arm_m3_Hwi_dispatch__I                   
20024725  xdc_runtime_Core_constructObject__I                        
200247f1  _SlDrvReleasePoolObj                                       
200248b9  ti_sysbios_family_arm_m3_Hwi_excDebugMon__I                
20024975  ti_sysbios_BIOS_RtsGateProxy_enter__E                      
20024979  ti_sysbios_family_arm_m3_Hwi_excHardFault__I               
20024a35  PWMTimerCC3200_setDuty                                     
20024aed  sl_NetAppDnsGetHostByName                                  
20024ba5  wlanConnect                                                
20024c5d  _SlDrvNetAppEventHandler                                   
20024d11  ti_sysbios_gates_GateMutex_enter__E                        
20024dc5  ti_sysbios_BIOS_RtsGateProxy_leave__E                      
20024dc9  ti_sysbios_knl_Task_checkStacks__E                         
20024e7d  sl_Connect                                                 
20024f2d  _SlDrvDataWriteOp                                          
20024fd9  Report                                                     
2002512b  SPICC3200DMA_control                                       
20025131  ti_sysbios_knl_Task_postInit__I                            
200251d9  sl_Send                                                    
2002527d  ti_sysbios_family_arm_m3_Hwi_destruct                      
20025281  ti_sysbios_knl_Clock_Instance_finalize__E                  
20025325  UARTCC3200_write                                           
200253c9  SPIConfigSetExpClk                                         
20025469  __TI_auto_init                                             
20025509  xdc_runtime_Text_putMod__E                                 
20025647  __aeabi_memcpy                                             
20025647  __aeabi_memcpy4                                            
20025647  __aeabi_memcpy8                                            
20025647  memcpy                                                     
200256e3  UtilsDelay                                                 
200256e9  ti_sysbios_knl_Semaphore_Instance_init__E                  
20025785  xdc_runtime_Text_putSite__E                                
2002581f  UARTCC3200_control                                         
200258b7  UARTCC3200_readPolling                                     
20025951  _SlDrvMsgReadCmdCtx                                        
200259e9  sl_Stop                                                    
20025a81  ti_sysbios_knl_Mailbox_post__E                             
20025b19  PRCMPeripheralClockGet                                     
20025bad  _SlFindAndSetActiveObj                                     
20025cd5  ti_sysbios_family_arm_m3_TaskSupport_Module__startupDone__S
20025cd5  ti_sysbios_knl_Task_SupportProxy_Module__startupDone__S    
20025cd9  ti_sysbios_family_arm_m3_Hwi_Instance_init__E              
20025d6d  _SlDrvDriverCBDeinit                                       
20025e8d  sl_Start                                                   
20025f1d  ti_sysbios_heaps_HeapMem_Module_GateProxy_enter__E         
20025f21  ti_sysbios_knl_Mailbox_pend__E                             
20026039  PinConfigSet                                               
200260c1  UARTCC3200_close                                           
20026149  vsnprintf                                                  
20026259  ti_sysbios_family_arm_m3_Hwi_initNVIC__E                   
200262e1  ti_sysbios_knl_Mailbox_Module_startup__E                   
20026369  __aeabi_cdcmpeq                                            
20026369  __aeabi_cdcmple                                            
200263ef  __aeabi_cdrcmple                                           
20026475  GPIO_init                                                  
2002657d  sl_NetAppMDNSRegisterUnregisterService                     
20026601  ti_sysbios_family_arm_m3_Hwi_postInit__I                   
20026685  GPIOIntTypeSet                                             
20026789  WiFiCC3200_open                                            
20026809  SPIIntStatus                                               
200268ff  __aeabi_memclr                                             
200268ff  __aeabi_memclr4                                            
200268ff  __aeabi_memclr8                                            
20026901  __aeabi_memset                                             
20026901  __aeabi_memset4                                            
20026901  __aeabi_memset8                                            
20026907  memset                                                     
20026979  VStartSimpleLinkSpawnTask                                  
200269f1  sl_DevGet                                                  
20026a69  wlanStart                                                  
20026ae1  UARTConfigSetExpClk                                        
20026b59  _SlDrvClassifyRxMsg                                        
20026bcd  ti_sysbios_heaps_HeapMem_Module_GateProxy_leave__E         
20026bd1  ti_sysbios_knl_Clock_start__E                              
20026c45  PWMTimerCC3200_control                                     
20026cb5  Power_sleep                                                
20026d25  _SlDrvCmdOp                                                
20026d95  ti_sysbios_knl_Clock_TimerProxy_getMaxTicks__E             
20026d99  ti_sysbios_knl_Mailbox_Instance_finalize__E                
20026e09  xdc_runtime_System_formatNum__I                            
20026e79  _SlDrvMsgReadSpawnCtx                                      
20026f51  ti_sysbios_knl_Clock_workFunc__E                           
20026fbd  ti_sysbios_knl_Clock_TimerProxy_setPeriodMicroSecs__E      
20026fc1  ti_sysbios_knl_Swi_restoreHwi__E                           
2002702d  ti_sysbios_knl_Clock_TimerProxy_start__E                   
20027031  ti_sysbios_knl_Task_exit__E                                
2002709d  unPackData                                                 
20027109  xdc_runtime_Error_print__E                                 
20027175  xdc_runtime_Memory_alloc__E                                
2002724d  PRCMHibernateWakeUpGPIOSelect                              
200272b5  __TI_writemsg                                              
200272e3  C$$IO$$                                                    
200272e7  __TI_readmsg                                               
2002731d  setupHTTPConnection                                        
20027385  spi_Read                                                   
200273ed  spi_Write                                                  
200274bd  xdc_runtime_Core_deleteObject__I                           
20027525  GPIO_hwiIntFxn                                             
20027589  _sl_HandleAsync_DnsGetHostByName                           
200275ed  ti_sysbios_knl_Clock_TimerProxy_stop__E                    
200275f1  ti_sysbios_family_arm_m3_Hwi_dispatchC__I                  
20027655  ti_sysbios_knl_Mailbox_create                              
200276b9  uDMAChannelAttributeDisable                                
2002771d  HwiP_create                                                
20027781  _sl_HandleAsync_DnsGetHostByService                        
200277e1  _sl_HandleAsync_InitComplete                               
20027841  _sl_HandleAsync_PingResponse                               
200278a1  ti_sysbios_knl_Task_schedule__I                            
20027961  frexp                                                      
20027961  frexpl                                                     
200279bd  ti_sysbios_knl_Clock_destruct                              
200279c1  ti_sysbios_knl_Swi_run__I                                  
20027a1d  ti_sysbios_knl_Mailbox_delete                              
20027a21  ti_sysbios_knl_Swi_schedule__I                             
20027a7d  ti_sysbios_knl_Queue_destruct                              
20027a81  ti_sysbios_knl_Task_Module_startup__E                      
20027add  ti_sysbios_knl_Task_create                                 
20027b39  ti_sysbios_knl_Task_startCore__E                           
20027b95  xdc_runtime_Text_putLab__E                                 
20027bf1  ClockP_create                                              
20027c4b  SPICC3200DMA_close                                         
20027ca5  IntPendClear                                               
20027cfd  PRCMPeripheralReset                                        
20027d55  Power_init                                                 
20027dad  SemaphoreP_create                                          
20027e05  _SlDrvCmdSend                                              
20027e5d  _sl_NetAppSendTokenValue                                   
20027eb5  ti_sysbios_family_arm_m3_Hwi_construct                     
20027f0d  ltoa                                                       
20027f65  CC3200_LAUNCHXL_initDMA                                    
20027fb9  UARTCC3200_writeCancel                                     
20028061  C$$EXIT                                                    
20028065  abort                                                      
20028065  xdc_runtime_System_abortStd__E                             
2002806d  exit                                                       
2002806d  xdc_runtime_System_exitStd__E                              
200280b5  sl_SetSockOpt                                              
20028109  ti_sysbios_family_arm_m3_Timer_setPeriod__E                
2002815d  ti_sysbios_knl_Semaphore_delete                            
20028161  ti_sysbios_family_arm_m3_Timer_start__E                    
200281b5  ti_sysbios_knl_Task_construct                              
20028209  xdc_runtime_Assert_raise__I                                
2002825d  CC3X00_NWP_enablePreamble                                  
200282ad  _sl_HandleAsync_Connect                                    
200282fd  sl_NetCfgSet                                               
2002834d  sl_WlanSet                                                 
2002839d  ti_sysbios_knl_Semaphore_destruct                          
200283a1  ti_sysbios_family_arm_m3_Hwi_Module_startup__E             
200283f1  xdc_runtime_Startup_exec__E                                
20028441  xdc_runtime_Text_visitRope2__I                             
20028491  GPIO_IF_GetPortNPin                                        
200284dd  GPIO_setCallback                                           
20028529  SPIIntDisable                                              
20028575  SPIIntEnable                                               
200285c1  _SlDrvDeviceEventHandler                                   
2002860d  _sl_HandleAsync_Accept                                     
20028659  atoi                                                       
200286a5  copy_in                                                    
200286f1  ti_sysbios_family_arm_m3_TaskSupport_buildTaskStack        
2002873d  ti_sysbios_knl_Task_delete                                 
20028741  ti_sysbios_family_arm_m3_Timer_setPeriodMicroSecs__E       
2002878d  xdc_runtime_Error_getSite__E                               
20028791  ti_sysbios_heaps_HeapMem_getStats__E                       
200287dd  xdc_runtime_System_Module_GateProxy_enter__E               
200287e1  ti_sysbios_knl_Swi_runLoop__I                              
2002882d  xdc_runtime_System_Module_GateProxy_leave__E               
20028831  ti_sysbios_knl_Task_allBlockedFunction__I                  
2002887d  uDMAChannelAssign                                          
200288c9  FlashDisable                                               
20028911  PRCMHibernateWakeupSourceEnable                            
20028959  PinConfigGet                                               
200289a1  SPIIntClear                                                
200289e9  _SlRemoveFromList                                          
20028a31  moveToOrigin                                               
20028ac1  __aeabi_d2iz                                               
20028b09  sl_Recv                                                    
20028b51  ti_sysbios_family_arm_m3_Hwi_disableInterrupt__E           
20028b51  ti_sysbios_hal_Hwi_HwiProxy_disableInterrupt__E            
20028b99  ti_sysbios_family_arm_m3_Hwi_enableInterrupt__E            
20028b99  ti_sysbios_hal_Hwi_HwiProxy_enableInterrupt__E             
20028be1  ti_sysbios_family_arm_m3_Hwi_excReserved__I                
20028c29  ti_sysbios_family_arm_m3_Hwi_initStacks__E                 
20028c71  ti_sysbios_family_arm_m3_Timer_initDevice__I               
20028cb9  RingBuf_put                                                
20028cff  xdc_runtime_Core_assignParams__I                           
20028d45  PRCMLPDSEnter                                              
20028d89  PowerCC3200_enterLPDS                                      
20028e11  SimpleLinkGeneralEventHandler                              
20028e99  _SlAsyncEventGenericHandler                                
20028edd  _c_int00                                                   
20028f21  sl_WlanPolicySet                                           
20028f65  xdc_runtime_System_aprintf_va__F                           
20028f69  ti_sysbios_family_arm_m3_Hwi_getStackInfo__E               
20028f69  ti_sysbios_hal_Hwi_HwiProxy_getStackInfo__E                
20028fad  xdc_runtime_System_printf_va__F                            
20028fb1  ti_sysbios_knl_Mailbox_postInit__I                         
20028ff9  ti_sysbios_knl_Swi_post__E                                 
2002903d  xdc_runtime_Error_setX__E                                  
20029081  xdc_runtime_SysMin_flush__E                                
20029081  xdc_runtime_System_SupportProxy_flush__E                   
200290c5  xdc_runtime_Text_xprintf__I                                
20029109  PowerCC3200_resumeLPDS                                     
2002914b  UARTCC3200_writePolling                                    
2002918d  GPIO_enableInt                                             
200291cd  PinModeSet                                                 
2002920d  Power_setDependency                                        
2002924d  RingBuf_get                                                
2002928d  UARTCC3200_read                                            
200292cd  _SlDrvRxIrqHandler                                         
2002930d  _sl_HandleAsync_Select                                     
2002934d  osi_LockObjLock                                            
2002938d  osi_SyncObjCreate                                          
200293cd  osi_SyncObjWait                                            
2002940d  __aeabi_uidiv                                              
2002940d  __aeabi_uidivmod                                           
2002944d  sl_WlanRxFilterSet                                         
20029491  ti_sysbios_family_arm_m3_Timer_Module_startup__E           
200294d1  realloc                                                    
20029511  PRCMPeripheralClkEnable                                    
2002954d  PRCMSlowClkCtrFastGet                                      
20029589  PinDirModeSet                                              
200295c5  WiFi_open                                                  
20029601  _sl_HandleAsync_Stop                                       
2002963d  brytarIntX                                                 
20029679  brytarIntY                                                 
200296f1  spi_Open                                                   
20029731  ti_sysbios_family_arm_m3_Hwi_excSvCall__I                  
20029771  ti_sysbios_heaps_HeapMem_init__I                           
200297b1  ti_sysbios_knl_Clock_getTicksUntilTimeout__E               
200297b1  ti_sysbios_knl_Clock_walkQueuePeriodic__E                  
200297f1  ti_sysbios_knl_Swi_restore__E                              
2002982d  uDMAChannelControlSet                                      
20029869  GPIO_IF_Set                                                
200298a5  PRCMIntEnable                                              
200298dd  PWM_init                                                   
20029915  PowerCC3200_initPolicy                                     
2002994d  SPI_init                                                   
20029985  UART_init                                                  
200299bd  WiFi_init                                                  
200299f5  osi_LockObjCreate                                          
20029a2d  pwmDutyDown                                                
20029a65  sl_Htonl                                                   
20029b11  ti_sysbios_family_arm_m3_Hwi_excNoIsr__I                   
20029b49  ti_sysbios_knl_Task_processVitalTaskFlag__I                
20029b81  xdc_runtime_SysMin_putch__E                                
20029b81  xdc_runtime_System_SupportProxy_putch__E                   
20029bb9  xdc_runtime_System_atexit__E                               
20029bf1  GPIODirModeSet                                             
20029c27  TimerControlLevel                                          
20029c5d  UARTCC3200_readCancel                                      
20029c95  CC3X00_NWP_disable                                         
20029cc9  PRCMPeripheralStatusGet                                    
20029cfd  PRCMSRAMRetentionEnable                                    
20029d31  Power_releaseDependency                                    
20029d65  SPIFIFOLevelSet                                            
20029d99  _SlDrvBasicCmd                                             
20029dcd  _SlDrvProtectAsyncRespSetting                              
20029e9d  sl_Htons                                                   
20029ed1  ti_sysbios_family_arm_m3_Hwi_Instance_finalize__E          
20029f09  ti_sysbios_family_arm_m3_Hwi_excNmi__I                     
20029f41  ti_sysbios_family_arm_m3_Timer_periodicStub__I             
20029f79  ti_sysbios_hal_Hwi_checkStack                              
20029fad  ti_sysbios_knl_Clock_construct                             
20029fe1  ti_sysbios_knl_Semaphore_create                            
2002a015  xdc_runtime_Core_assignLabel__I                            
2002a049  xdc_runtime_Text_printVisFxn__I                            
2002a0b1  ti_sysbios_hal_Hwi_initStack                               
2002a0e5  PWM_open                                                   
2002a115  PinTypeGPIO                                                
2002a145  Power_releaseConstraint                                    
2002a175  Power_setConstraint                                        
2002a1a5  SPI_open                                                   
2002a1d5  UARTDisable                                                
2002a205  UART_open                                                  
2002a235  registerInterruptHandler                                   
2002a265  sl_Socket                                                  
2002a295  ti_sysbios_BIOS_atExitFunc__I                              
2002a2c9  ti_sysbios_family_arm_m3_TaskSupport_start__E              
2002a2c9  ti_sysbios_knl_Task_SupportProxy_start__E                  
2002a2f9  ti_sysbios_gates_GateHwi_Object__create__S                 
2002a329  ti_sysbios_gates_GateMutex_Object__create__S               
2002a359  ti_sysbios_heaps_HeapMem_Object__create__S                 
2002a389  ti_sysbios_knl_Semaphore_construct                         
2002a3b9  ti_sysbios_knl_Semaphore_pendTimeout__I                    
2002a3e9  ti_sysbios_knl_Task_unblockI__E                            
2002a419  xdc_runtime_SysMin_abort__E                                
2002a419  xdc_runtime_System_SupportProxy_abort__E                   
2002a449  xdc_runtime_System_processAtExit__E                        
2002a479  PWMTimerCC3200_close                                       
2002a4a7  ff_memalloc                                                
2002a4a7  malloc                                                     
2002a4d5  __aeabi_i2d                                                
2002a505  CC3X00_NWP_enable                                          
2002a531  PRCMLPDSIntervalSet                                        
2002a55d  PRCMSysResetCauseGet                                       
2002a589  ti_sysbios_knl_Clock_doTick__I                             
2002a5b5  ti_sysbios_knl_Queue_construct                             
2002a5e1  ti_sysbios_knl_Task_restore__E                             
2002a60d  xdc_runtime_Text_cordText__E                               
2002a639  SPIDataGetNonBlocking                                      
2002a663  TimerLoadSet                                               
2002a68d  TimerMatchSet                                              
2002a6b7  TimerPrescaleMatchSet                                      
2002a6e1  TimerPrescaleSet                                           
2002a70b  _sl_BuildAddress                                           
2002a735  xdc_runtime_System_putchar__I                              
2002a761  Message                                                    
2002a789  PRCMLPDSWakeupSourceEnable                                 
2002a7b1  PRCMPeripheralClkDisable                                   
2002a7d9  Power_registerNotify                                       
2002a829  ti_sysbios_knl_Swi_Module_startup__E                       
2002a851  uDMAChannelIsEnabled                                       
2002a879  List_put                                                   
2002a89f  strncmp                                                    
2002a8c5  xdc_runtime_System_avprintf__E                             
2002a8ed  PRCMLPDSWakeUpGPIOSelect                                   
2002a911  UARTCharPutNonBlocking                                     
2002a935  UARTEnable                                                 
2002a959  osi_Spawn                                                  
2002a97d  sl_Close                                                   
2002a9a1  sl_WlanProfileDel                                          
2002a9c5  sl_WlanSetMode                                             
2002a9e9  ti_sysbios_BIOS_errorRaiseHook__I                          
2002aa0d  ti_sysbios_BIOS_registerRTSLock__I                         
2002aa31  ti_sysbios_BIOS_removeRTSLock__I                           
2002aa55  ti_sysbios_BIOS_startFunc__I                               
2002aa79  ti_sysbios_family_arm_m3_Hwi_doTaskRestore__I              
2002aaa1  ti_sysbios_family_arm_m3_Timer_startup__E                  
2002aaa1  ti_sysbios_knl_Clock_TimerProxy_startup__E                 
2002aac5  ti_sysbios_BIOS_RtsGateProxy_Object__delete__S             
2002aac5  ti_sysbios_gates_GateMutex_Object__delete__S               
2002aac5  ti_sysbios_heaps_HeapMem_Module_GateProxy_Object__delete__S
2002aae9  ti_sysbios_knl_Clock_Module_startup__E                     
2002ab0d  ti_sysbios_knl_Semaphore_Object__delete__S                 
2002ab31  xdc_runtime_System_vprintf__E                              
2002ab55  GPIOIntStatus                                              
2002ab77  SPIReset                                                   
2002ab99  SPIWordCountSet                                            
2002abbb  xdc_runtime_SysMin_output__I                               
2002abdd  GPIOPinWrite                                               
2002abfd  PRCMLPDSRestoreInfoSet                                     
2002ac1d  Power_idleFunc                                             
2002ac3d  Power_unregisterNotify                                     
2002ac5d  SPIDataGet                                                 
2002acbd  ti_sysbios_BIOS_rtsLock__I                                 
2002ace1  ti_sysbios_family_arm_m3_Hwi_clearInterrupt__E             
2002ace1  ti_sysbios_hal_Hwi_HwiProxy_clearInterrupt__E              
2002ad01  ti_sysbios_family_arm_m3_Hwi_excHandlerAsm__I              
2002ad21  ti_sysbios_family_arm_m3_Hwi_excHandler__I                 
2002ad41  ti_sysbios_gates_GateHwi_Object__delete__S                 
2002ad41  xdc_runtime_Main_Module_GateProxy_Object__delete__S        
2002ad41  xdc_runtime_System_Module_GateProxy_Object__delete__S      
2002ad61  ti_sysbios_heaps_HeapMem_Object__delete__S                 
2002ad61  xdc_runtime_Memory_HeapProxy_Object__delete__S             
2002ad81  ti_sysbios_knl_Clock_Object__destruct__S                   
2002ada1  ti_sysbios_knl_Idle_run__E                                 
2002adc1  ti_sysbios_knl_Mailbox_Object__delete__S                   
2002ade1  ti_sysbios_knl_Semaphore_Object__destruct__S               
2002ae01  ti_sysbios_knl_Task_Object__delete__S                      
2002ae21  xdc_runtime_Registry_findById__E                           
2002ae41  xdc_runtime_SysMin_Module_startup__E                       
2002ae61  SPIDataPut                                                 
2002ae7f  TimerDisable                                               
2002ae9d  TimerEnable                                                
2002aebb  UARTCharPut                                                
2002aed9  UARTIntStatus                                              
2002aef7  WiFiCC3200_close                                           
2002af15  ti_sysbios_family_xxx_Hwi_switchAndRunFunc                 
2002af35  SPICC3200DMA_init                                          
2002af51  UARTCharGetNonBlocking                                     
2002af6d  UARTFlowControlSet                                         
2002af89  _SlDrvProtectionObjLockWaitForever                         
2002afa5  _sl_TruncatePayloadByProtocol                              
2002afc1  memccpy                                                    
2002afdd  ti_sysbios_family_arm_m3_Hwi_Object__destruct__S           
2002aff9  ti_sysbios_family_arm_m3_Timer_stop__E                     
2002b019  ti_sysbios_gates_GateMutex_Instance_init__E                
2002b035  ti_sysbios_knl_Queue_Object__destruct__S                   
2002b051  ti_sysbios_knl_Task_enter__I                               
2002b06d  uDMAChannelEnable                                          
2002b0a5  xdc_runtime_Error_raiseX__E                                
2002b0c1  xdc_runtime_Memory_valloc__E                               
2002b0dd  xdc_runtime_SysMin_exit__E                                 
2002b0dd  xdc_runtime_System_SupportProxy_exit__E                    
2002b0f9  xdc_runtime_System_abort__E                                
2002b115  CopyPingResultsToReport                                    
2002b12f  GPIOIntEnable                                              
2002b149  List_remove                                                
2002b163  PinTypeTimer                                               
2002b17d  SPIDmaDisable                                              
2002b197  SPIDmaEnable                                               
2002b1b1  SPIFIFODisable                                             
2002b1cb  SPIFIFOEnable                                              
2002b1e5  ti_sysbios_family_arm_m3_Hwi_Handle__label__S              
2002b1e5  ti_sysbios_hal_Hwi_HwiProxy_Handle__label__S               
2002b1ff  ti_sysbios_family_arm_m3_Hwi_pendSV__I                     
2002b217  ti_sysbios_family_arm_m3_Hwi_return                        
2002b219  ti_sysbios_gates_GateHwi_Handle__label__S                  
2002b219  xdc_runtime_Main_Module_GateProxy_Handle__label__S         
2002b219  xdc_runtime_System_Module_GateProxy_Handle__label__S       
2002b233  ti_sysbios_BIOS_RtsGateProxy_Handle__label__S              
2002b233  ti_sysbios_gates_GateMutex_Handle__label__S                
2002b233  ti_sysbios_heaps_HeapMem_Module_GateProxy_Handle__label__S 
2002b24d  ti_sysbios_heaps_HeapMem_Handle__label__S                  
2002b24d  xdc_runtime_Memory_HeapProxy_Handle__label__S              
2002b267  ti_sysbios_knl_Swi_Handle__label__S                        
2002b281  ti_sysbios_knl_Task_Handle__label__S                       
2002b29b  xdc_runtime_System_aprintf__E                              
2002b2b5  xdc_runtime_System_printf__E                               
2002b2d1  InsertPenInt                                               
2002b2e9  SPICSDisable                                               
2002b301  SPICSEnable                                                
2002b319  SPIDisable                                                 
2002b331  SPIEnable                                                  
2002b349  UARTBusy                                                   
2002b361  UARTFIFOLevelSet                                           
2002b379  UARTIntDisable                                             
2002b391  UARTIntEnable                                              
2002b3a9  UART_Params_init                                           
2002b3c1  VDeleteSimpleLinkSpawnTask                                 
2002b3d9  WiFiCC3200_init                                            
2002b3f1  _SlDrvProtectionObjUnLock                                  
2002b409  ff_memfree                                                 
2002b409  free                                                       
2002b409  mem_Free                                                   
2002b421  _args_main                                                 
2002b439  __aeabi_lmul                                               
2002b451  strcmp                                                     
2002b469  spi_Close                                                  
2002b481  ti_sysbios_BIOS_rtsUnlock__I                               
2002b499  ti_sysbios_family_arm_m3_Hwi_Module__startupDone__F        
2002b499  ti_sysbios_family_arm_m3_Hwi_Module__startupDone__S        
2002b499  ti_sysbios_hal_Hwi_HwiProxy_Module__startupDone__S         
2002b4b1  ti_sysbios_family_arm_m3_Timer_Module__startupDone__F      
2002b4b1  ti_sysbios_family_arm_m3_Timer_Module__startupDone__S      
2002b4b1  ti_sysbios_knl_Clock_TimerProxy_Module__startupDone__S     
2002b4c9  ti_sysbios_gates_GateMutex_leave__E                        
2002b4e1  ti_sysbios_knl_Task_sleepTimeout__I                        
2002b4f9  xdc_runtime_Error_check__E                                 
2002b511  xdc_runtime_System_exit__E                                 
2002b529  xdc_runtime_Text_ropeText__E                               
2002b541  ClockP_delete                                              
2002b557  HwiP_delete                                                
2002b56d  PRCMHIBRegRead                                             
2002b583  PRCMHIBRegWrite                                            
2002b599  SemaphoreP_delete                                          
2002b5af  UARTCharGet                                                
2002b5c5  strchr                                                     
2002b5f1  ti_sysbios_BIOS_exitFunc__I                                
2002b633  CPUcpsid                                                   
2002b647  CPUcpsie                                                   
2002b65b  GPIOIntClear                                               
2002b671  SPI_Params_init                                            
2002b699  osi_SyncObjClear                                           
2002b6ad  _register_unlock                                           
2002b6b3  _register_lock                                             
2002b6bb  _nop                                                       
2002b6c1  strcpy                                                     
2002b6d5  strlen                                                     
2002b6e9  ti_sysbios_family_arm_m3_Hwi_Object__get__S                
2002b701  ti_sysbios_family_arm_m3_Hwi_switchFromBootStack__E        
2002b701  ti_sysbios_hal_Hwi_HwiProxy_switchFromBootStack__E         
2002b715  ti_sysbios_heaps_HeapMem_Object__get__S                    
2002b729  ti_sysbios_knl_Clock_tickReconfig__E                       
2002b73d  ti_sysbios_knl_Swi_Object__get__S                          
2002b751  uDMAControlBaseSet                                         
2002b765  ClockP_start                                               
2002b765  ClockP_startFromISR                                        
2002b777  RingBuf_construct                                          
2002b789  SemaphoreP_pend                                            
2002b79b  UARTIntClear                                               
2002b7ad  UARTRxErrorGet                                             
2002b7bf  _SlDrvObjLockWaitForever                                   
2002b7d1  _SlDrvSyncObjWaitForever                                   
2002b7e3  sl_NetAppMDNSUnRegisterService                             
2002b7f9  ti_sysbios_hal_Hwi_Module_startup__E                       
2002b80b  xdc_runtime_Startup_exec__I                                
2002b81d  CC3200_LAUNCHXL_initGeneral                                
2002b82d  CC3200_LAUNCHXL_initWiFi                                   
2002b83d  CC3X00_NWP_maskInterrupt                                   
2002b84d  PWM_Params_init                                            
2002b85d  UARTRxErrorClear                                           
2002b86d  WiFi_Params_init                                           
2002b87d  _sl_GetStartResponseConvert                                
2002b8b1  ti_sysbios_BIOS_getCpuFreq__E                              
2002b8c1  ti_sysbios_BIOS_setThreadType__E                           
2002b8d1  osi_start                                                  
2002b8d1  ti_sysbios_BIOS_start__E                                   
2002b8e1  ti_sysbios_family_arm_m3_TaskSupport_glue                  
2002b8f1  ti_sysbios_family_arm_m3_TaskSupport_swap__E               
2002b8f1  ti_sysbios_knl_Task_SupportProxy_swap__E                   
2002b8f9  ti_sysbios_knl_Task_swapReturn                             
2002b901  ti_sysbios_gates_GateMutex_Instance_finalize__E            
2002b911  ti_sysbios_knl_Mailbox_Object__get__S                      
2002b921  ti_sysbios_knl_Semaphore_Instance_finalize__E              
2002b931  ti_sysbios_knl_Swi_disable__E                              
2002b941  ti_sysbios_knl_Task_Object__get__S                         
2002b951  osi_TaskDisable                                            
2002b951  ti_sysbios_knl_Task_disable__E                             
2002b961  xdc_runtime_Gate_leaveSystem__E                            
2002b971  xdc_runtime_Memory_free__E                                 
2002b981  xdc_runtime_SysMin_ready__E                                
2002b981  xdc_runtime_System_SupportProxy_ready__E                   
2002b991  xdc_runtime_System_vsnprintf__E                            
2002b9a1  xdc_runtime_Text_visitRope__I                              
2002b9b1  HwiP_Params_init                                           
2002b9bf  _SlDrvObjUnLock                                            
2002b9cd  _SlDrvSyncObjSignal                                        
2002b9db  __TI_decompress_none                                       
2002b9e9  ti_sysbios_knl_Idle_loop__E                                
2002b9f9  ti_sysbios_knl_Queue_empty__E                              
2002ba09  CC3X00_NWP_unMaskInterrupt                                 
2002ba15  CPUwfi                                                     
2002ba21  ClockP_getSystemTickPeriod                                 
2002ba2d  Power_getConstraintMask                                    
2002ba39  Power_getDependencyCount                                   
2002ba45  RingBuf_peek                                               
2002ba51  SimpleLinkHttpServerCallback                               
2002ba5d  UARTCC3200_init                                            
2002ba69  osi_LockObjUnlock                                          
2002ba75  osi_SyncObjSignal                                          
2002ba81  osi_SyncObjSignalFromISR                                   
2002baa5  ti_sysbios_family_arm_m3_Hwi_Params__init__S               
2002baa5  ti_sysbios_hal_Hwi_HwiProxy_Params__init__S                
2002bab1  ti_sysbios_family_arm_m3_Hwi_disableFxn__E                 
2002bab1  ti_sysbios_hal_Hwi_HwiProxy_disable__E                     
2002bac1  ti_sysbios_family_arm_m3_TaskSupport_checkStack__E         
2002bac1  ti_sysbios_knl_Task_SupportProxy_checkStack__E             
2002bad1  ti_sysbios_family_arm_m3_TaskSupport_getStackAlignment__E  
2002bad1  ti_sysbios_knl_Task_SupportProxy_getStackAlignment__E      
2002bae1  ti_sysbios_gates_GateHwi_enter__E                          
2002baed  ti_sysbios_knl_Clock_Params__init__S                       
2002baf9  ClockP_getSystemTicks                                      
2002baf9  ti_sysbios_knl_Clock_getTicks__E                           
2002bb09  ti_sysbios_knl_Clock_setTicks__E                           
2002bb19  ti_sysbios_knl_Clock_tickStart__E                          
2002bb29  ti_sysbios_knl_Clock_tickStop__E                           
2002bb35  ti_sysbios_knl_Queue_Object__get__S                        
2002bb41  ti_sysbios_knl_Semaphore_Params__init__S                   
2002bb59  ti_sysbios_knl_Task_Params__init__S                        
2002bb65  uDMAControlBaseGet                                         
2002bb71  uDMAEnable                                                 
2002bb7d  uDMAErrorStatusClear                                       
2002bb89  uDMAIntStatus                                              
2002bb95  xdc_runtime_Error_init__E                                  
2002bba1  xdc_runtime_Gate_enterSystem__E                            
2002bbad  xdc_runtime_Memory_calloc__E                               
2002bbb9  xdc_runtime_Memory_getMaxDefaultTypeAlign__E               
2002bbc5  ClockP_stop                                                
2002bbc5  ClockP_stopFromISR                                         
2002bbcf  List_empty                                                 
2002bbd9  PWMTimerCC3200_getPeriodCounts                             
2002bbe3  PWM_setDuty                                                
2002bbed  SPI_close                                                  
2002bbf7  SPI_transfer                                               
2002bc01  SemaphoreP_post                                            
2002bc01  SemaphoreP_postFromClock                                   
2002bc01  SemaphoreP_postFromISR                                     
2002bc0b  WiFi_close                                                 
2002bc1f  osi_LockObjDelete                                          
2002bc29  osi_SyncObjDelete                                          
2002bc33  xdc_runtime_Memory_HeapProxy_alloc__E                      
2002bc3d  xdc_runtime_Memory_HeapProxy_free__E                       
2002bc47  CC3200_LAUNCHXL_initGPIO                                   
2002bc4f  CC3200_LAUNCHXL_initPWM                                    
2002bc57  CC3200_LAUNCHXL_initUART                                   
2002bc5f  ClockP_Params_init                                         
2002bc67  PRCMSleepEnter                                             
2002bc6f  PWMTimerCC3200_init                                        
2002bc77  SemaphoreP_Params_init                                     
2002bc7f  _SlDrvMemZero                                              
2002bc8f  copysign                                                   
2002bc8f  copysignl                                                  
2002bc97  sl_WlanDisconnect                                          
2002bca1  ti_sysbios_family_arm_m3_Hwi_doSwiRestore__I               
2002bca9  ti_sysbios_family_arm_m3_Hwi_startup__E                    
2002bca9  ti_sysbios_hal_Hwi_HwiProxy_startup__E                     
2002bcc1  WiFiCC3200_control                                         
2002bcc7  _SlDrvResetCmdExt                                          
2002bccd  __TI_decompress_rle24                                      
2002bcd3  xdc_runtime_System_Module_startup__E                       
2002bcd9  HwiP_restore                                               
2002bcd9  ti_sysbios_family_arm_m3_Hwi_restoreFxn__E                 
2002bcd9  ti_sysbios_hal_Hwi_HwiProxy_restore__E                     
2002bce1  ti_sysbios_gates_GateHwi_leave__E                          
2002bce9  ti_sysbios_heaps_HeapMem_isBlocking__E                     
2002bcf1  ti_sysbios_knl_Clock_stop__E                               
2002bcf9  ti_sysbios_knl_Queue_Instance_init__E                      
2002bd01  ti_sysbios_knl_Swi_startup__E                              
2002bd09  ti_sysbios_family_arm_m3_Timer_getMaxTicks__E              
2002bd11  ti_sysbios_gates_GateHwi_query__E                          
2002bd11  xdc_runtime_Main_Module_GateProxy_query__E                 
2002bd11  xdc_runtime_System_Module_GateProxy_query__E               
2002bd19  ti_sysbios_BIOS_RtsGateProxy_query__E                      
2002bd19  ti_sysbios_gates_GateMutex_query__E                        
2002bd19  ti_sysbios_heaps_HeapMem_Module_GateProxy_query__E         
2002bd21  ti_sysbios_knl_Clock_setTimeout__E                         
2002bd29  ti_sysbios_knl_Task_startup__E                             
2002bd31  ti_sysbios_gates_GateHwi_Instance_init__E                  
2002bd39  ti_sysbios_knl_Clock_logTick__E                            
2002bd3c  xdc_runtime_Text_charTab__A                                
2002d542  _ctypes_                                                   
2002d643  ti_sysbios_knl_Clock_tickMode__C                           
2002d89c  xdc_runtime_Text_nodeTab__A                                
2002d9c4  spiCC3200DMAHWAttrs                                        
2002da2c  SPICC3200DMA_fxnTable                                      
2002db20  OpcodeTranslateTable                                       
2002db5c  _SlPolicySetCmdCtrl                                        
2002db60  _SlPolicyGetCmdCtrl                                        
2002db64  _SlProfileGetCmdCtrl                                       
2002db68  _SlProfileDelCmdCtrl                                       
2002db6c  _SlWlanGetNetworkListCtrl                                  
2002db70  _SlRxFilterAddtCmdCtrl                                     
2002db74  _SlRxFilterSetCmdCtrl                                      
2002db78  _SlRxFilterGetCmdCtrl                                      
2002db7c  _SlSmartConfigStartCmdCtrl                                 
2002db80  _SlWlanSetModeCmdCtrl                                      
2002db84  _SlWlanCfgSetCmdCtrl                                       
2002db88  _SlWlanCfgGetCmdCtrl                                       
2002db98  ti_sysbios_knl_Task_Object__PARAMS__C                      
2002dbd4  _SlActionLookupTable                                       
2002dc0c  _SlSockSocketCmdCtrl                                       
2002dc10  _SlSockCloseCmdCtrl                                        
2002dc14  _SlRecvfomCmdCtrl                                          
2002dc18  _SlSendCmdCtrl                                             
2002dc1c  _SlListenCmdCtrl                                           
2002dc20  _SlAcceptCmdCtrl                                           
2002dc24  _SlRecvCmdCtrl                                             
2002dc28  _SlSetSockOptCmdCtrl                                       
2002dc2c  _SlGetSockOptCmdCtrl                                       
2002dc30  _SlSelectCmdCtrl                                           
2002dc40  inPinTypes                                                 
2002dc46  outPinTypes                                                
2002dc4e  outPinStrengths                                            
2002dc74  ti_sysbios_knl_Mailbox_Object__PARAMS__C                   
2002dca8  ti_sysbios_family_arm_m3_Hwi_Object__PARAMS__C             
2002dcd8  uartCC3200HWAttrs                                          
2002dd5e  ti_sysbios_family_arm_m3_Hwi_Module__id__C                 
2002dd60  PowerCC3200_config                                         
2002dd88  UARTCC3200_fxnTable                                        
2002ddb0  _SlNetAppStartCtrl                                         
2002ddb4  _SlNetAppStopCtrl                                          
2002ddb8  _SlGetServiceListeCtrl                                     
2002ddbc  _SlRegisterServiceCtrl                                     
2002ddc0  _SlGetHostByServiceCtrl                                    
2002ddc4  _SlGetHostByNameCtrl                                       
2002ddc8  _SlNetAppSetCmdCtrl                                        
2002ddcc  _SlNetAppSendTokenValueCmdCtrl                             
2002ddd0  _SlNetAppGetCmdCtrl                                        
2002ddd8  ti_sysbios_heaps_HeapMem_Module__FXNS__C                   
2002de00  PWM_config                                                 
2002de24  SPI_config                                                 
2002de48  UART_config                                                
2002de6c  UART_defaultParams                                         
2002de90  RxMsgClassLUT                                              
2002deb4  ti_sysbios_gates_GateHwi_Module__FXNS__C                   
2002ded8  ti_sysbios_gates_GateMutex_Module__FXNS__C                 
2002defc  ti_sysbios_heaps_HeapMem_Object__PARAMS__C                 
2002df20  ti_sysbios_knl_Clock_Object__PARAMS__C                     
2002df44  ti_sysbios_knl_Semaphore_Object__PARAMS__C                 
2002df68  xdc_runtime_Startup_sfxnTab__A                             
2002dfae  ti_sysbios_family_arm_m3_Timer_Module__id__C               
2002dfb0  PWMTimerCC3200_fxnTable                                    
2002dfcc  PWMTimerCC3200_MAX_PRESCALAR_VALUE                         
2002dfce  PWMTimerCC3200_MAX_MATCH_VALUE                             
2002dfd0  SPI_defaultParams                                          
2002dff0  ti_sysbios_family_arm_m3_Hwi_Object__DESC__C               
2002e010  ti_sysbios_gates_GateHwi_Object__DESC__C                   
2002e030  ti_sysbios_gates_GateMutex_Object__DESC__C                 
2002e050  ti_sysbios_heaps_HeapMem_Object__DESC__C                   
2002e070  ti_sysbios_knl_Clock_Object__DESC__C                       
2002e090  ti_sysbios_knl_Mailbox_Object__DESC__C                     
2002e0b0  ti_sysbios_knl_Queue_Object__DESC__C                       
2002e0d0  ti_sysbios_knl_Semaphore_Object__DESC__C                   
2002e0f0  ti_sysbios_knl_Task_Object__DESC__C                        
2002e128  WiFi_config                                                
2002e158  ti_sysbios_gates_GateHwi_Object__PARAMS__C                 
2002e170  ti_sysbios_gates_GateMutex_Object__PARAMS__C               
2002e188  ti_sysbios_knl_Queue_Object__PARAMS__C                     
2002e1b4  GPIOCC3200_config                                          
2002e1c8  _SlStopCmdCtrl                                             
2002e1cc  _SlEventMaskSetCmdCtrl                                     
2002e1d0  _SlEventMaskGetCmdCtrl                                     
2002e1d4  _SlDeviceGetCmdCtrl                                        
2002e1d8  _SlDeviceSetCmdCtrl                                        
2002e1ee  xdc_runtime_Startup_sfxnRts__A                             
2002e200  _SlPayloadByProtocolLUT                                    
2002e210  WiFiCC3200_fxnTable                                        
2002e220  pwmTimerCC3200HWAttrs                                      
2002e258  PWM_defaultParams                                          
2002e264  WiFi_defaultParams                                         
2002e270  xdc_runtime_Startup_firstFxns__A                           
2002e286  StartResponseLUT                                           
2002e296  _SlNetCfgSetCmdCtrl                                        
2002e29a  _SlNetCfgGetCmdCtrl                                        
2002e29e  ti_sysbios_gates_GateMutex_Module__id__C                   
2002e2a0  ti_sysbios_family_arm_m3_Hwi_excHookFuncs__A               
2002e2a8  ti_sysbios_knl_Idle_funcList__A                            
2002e2b0  ti_sysbios_knl_Idle_funcList__C                            
2002e2b8  xdc_runtime_Startup_firstFxns__C                           
2002e2c0  xdc_runtime_Startup_lastFxns__C                            
2002e2c8  ti_sysbios_family_arm_m3_Hwi_E_NMI__C                      
2002e2cc  ti_sysbios_family_arm_m3_Hwi_E_alreadyDefined__C           
2002e2d0  ti_sysbios_family_arm_m3_Hwi_E_busFault__C                 
2002e2d4  ti_sysbios_family_arm_m3_Hwi_E_debugMon__C                 
2002e2d8  ti_sysbios_family_arm_m3_Hwi_E_hardFault__C                
2002e2dc  ti_sysbios_family_arm_m3_Hwi_E_memFault__C                 
2002e2e0  ti_sysbios_family_arm_m3_Hwi_E_noIsr__C                    
2002e2e4  ti_sysbios_family_arm_m3_Hwi_E_reserved__C                 
2002e2e8  ti_sysbios_family_arm_m3_Hwi_E_svCall__C                   
2002e2ec  ti_sysbios_family_arm_m3_Hwi_E_usageFault__C               
2002e2f0  ti_sysbios_family_arm_m3_Hwi_NUM_INTERRUPTS__C             
2002e2f4  ti_sysbios_family_arm_m3_Hwi_Object__count__C              
2002e2f8  ti_sysbios_family_arm_m3_Hwi_ccr__C                        
2002e2fc  ti_sysbios_family_arm_m3_Hwi_excHandlerFunc__C             
2002e300  ti_sysbios_family_arm_m3_Hwi_excHookFuncs__C               
2002e304  ti_sysbios_family_arm_m3_Hwi_nullIsrFunc__C                
2002e308  ti_sysbios_family_arm_m3_Hwi_priGroup__C                   
2002e30c  ti_sysbios_family_arm_m3_TaskSupport_stackAlignment__C     
2002e310  ti_sysbios_family_arm_m3_Timer_E_cannotSupport__C          
2002e314  ti_sysbios_family_arm_m3_Timer_startupNeeded__C            
2002e318  ti_sysbios_gates_GateMutex_A_badContext__C                 
2002e31c  ti_sysbios_gates_GateMutex_Instance_State_sem__O           
2002e320  ti_sysbios_gates_GateMutex_Module__diagsEnabled__C         
2002e324  ti_sysbios_gates_GateMutex_Module__diagsIncluded__C        
2002e328  ti_sysbios_gates_GateMutex_Module__diagsMask__C            
2002e32c  ti_sysbios_hal_Hwi_E_stackOverflow__C                      
2002e330  ti_sysbios_heaps_HeapMem_A_align__C                        
2002e334  ti_sysbios_heaps_HeapMem_A_heapSize__C                     
2002e338  ti_sysbios_heaps_HeapMem_A_invalidFree__C                  
2002e33c  ti_sysbios_heaps_HeapMem_A_zeroBlock__C                    
2002e340  ti_sysbios_heaps_HeapMem_E_memory__C                       
2002e344  ti_sysbios_heaps_HeapMem_Module__diagsEnabled__C           
2002e348  ti_sysbios_heaps_HeapMem_Module__diagsIncluded__C          
2002e34c  ti_sysbios_heaps_HeapMem_Module__diagsMask__C              
2002e350  ti_sysbios_heaps_HeapMem_Module__gateObj__C                
2002e354  ti_sysbios_heaps_HeapMem_Object__count__C                  
2002e358  ti_sysbios_heaps_HeapMem_reqAlign__C                       
2002e35c  ti_sysbios_knl_Clock_A_badThreadType__C                    
2002e360  ti_sysbios_knl_Clock_Module_State_clockQ__O                
2002e364  ti_sysbios_knl_Clock_Module__diagsEnabled__C               
2002e368  ti_sysbios_knl_Clock_Module__diagsIncluded__C              
2002e36c  ti_sysbios_knl_Clock_Module__diagsMask__C                  
2002e370  ti_sysbios_knl_Clock_tickPeriod__C                         
2002e374  ti_sysbios_knl_Mailbox_A_invalidBufSize__C                 
2002e378  ti_sysbios_knl_Mailbox_Instance_State_dataQue__O           
2002e37c  ti_sysbios_knl_Mailbox_Instance_State_dataSem__O           
2002e380  ti_sysbios_knl_Mailbox_Instance_State_freeQue__O           
2002e384  ti_sysbios_knl_Mailbox_Instance_State_freeSem__O           
2002e388  ti_sysbios_knl_Mailbox_Module__diagsEnabled__C             
2002e38c  ti_sysbios_knl_Mailbox_Module__diagsIncluded__C            
2002e390  ti_sysbios_knl_Mailbox_Module__diagsMask__C                
2002e394  ti_sysbios_knl_Mailbox_Object__count__C                    
2002e398  ti_sysbios_knl_Mailbox_maxTypeAlign__C                     
2002e39c  ti_sysbios_knl_Semaphore_A_badContext__C                   
2002e3a0  ti_sysbios_knl_Semaphore_A_noEvents__C                     
2002e3a4  ti_sysbios_knl_Semaphore_A_overflow__C                     
2002e3a8  ti_sysbios_knl_Semaphore_A_pendTaskDisabled__C             
2002e3ac  ti_sysbios_knl_Semaphore_Instance_State_pendQ__O           
2002e3b0  ti_sysbios_knl_Semaphore_Module__diagsEnabled__C           
2002e3b4  ti_sysbios_knl_Semaphore_Module__diagsIncluded__C          
2002e3b8  ti_sysbios_knl_Semaphore_Module__diagsMask__C              
2002e3bc  ti_sysbios_knl_Swi_Object__count__C                        
2002e3c0  ti_sysbios_knl_Task_A_badPriority__C                       
2002e3c4  ti_sysbios_knl_Task_A_badTaskState__C                      
2002e3c8  ti_sysbios_knl_Task_A_badThreadType__C                     
2002e3cc  ti_sysbios_knl_Task_A_badTimeout__C                        
2002e3d0  ti_sysbios_knl_Task_A_noPendElem__C                        
2002e3d4  ti_sysbios_knl_Task_A_sleepTaskDisabled__C                 
2002e3d8  ti_sysbios_knl_Task_E_spOutOfBounds__C                     
2002e3dc  ti_sysbios_knl_Task_E_stackOverflow__C                     
2002e3e0  ti_sysbios_knl_Task_Module_State_inactiveQ__O              
2002e3e4  ti_sysbios_knl_Task_Module__diagsEnabled__C                
2002e3e8  ti_sysbios_knl_Task_Module__diagsIncluded__C               
2002e3ec  ti_sysbios_knl_Task_Module__diagsMask__C                   
2002e3f0  ti_sysbios_knl_Task_Object__count__C                       
2002e3f4  ti_sysbios_knl_Task_allBlockedFunc__C                      
2002e3f8  ti_sysbios_knl_Task_defaultStackHeap__C                    
2002e3fc  ti_sysbios_knl_Task_defaultStackSize__C                    
2002e400  ti_sysbios_knl_Task_numConstructedTasks__C                 
2002e404  wiFiCC3200HWAttrs                                          
2002e408  xdc_runtime_Assert_E_assertFailed__C                       
2002e40c  xdc_runtime_Core_A_initializedParams__C                    
2002e410  xdc_runtime_Core_Module__diagsEnabled__C                   
2002e414  xdc_runtime_Core_Module__diagsIncluded__C                  
2002e418  xdc_runtime_Core_Module__diagsMask__C                      
2002e41c  xdc_runtime_Error_E_memory__C                              
2002e420  xdc_runtime_Error_Module__diagsEnabled__C                  
2002e424  xdc_runtime_Error_Module__diagsIncluded__C                 
2002e428  xdc_runtime_Error_Module__diagsMask__C                     
2002e42c  xdc_runtime_Error_Module__loggerFxn8__C                    
2002e430  xdc_runtime_Error_Module__loggerObj__C                     
2002e434  xdc_runtime_Error_policyFxn__C                             
2002e438  xdc_runtime_Error_raiseHook__C                             
2002e43c  xdc_runtime_IGateProvider_Interface__BASE__C               
2002e440  xdc_runtime_IHeap_Interface__BASE__C                       
2002e444  xdc_runtime_IModule_Interface__BASE__C                     
2002e448  xdc_runtime_Log_L_error__C                                 
2002e44c  xdc_runtime_Memory_defaultHeapInstance__C                  
2002e450  xdc_runtime_Startup_execImpl__C                            
2002e454  xdc_runtime_Startup_maxPasses__C                           
2002e458  xdc_runtime_Startup_sfxnRts__C                             
2002e45c  xdc_runtime_Startup_sfxnTab__C                             
2002e460  xdc_runtime_SysMin_bufSize__C                              
2002e464  xdc_runtime_SysMin_outputFunc__C                           
2002e468  xdc_runtime_System_Module__gateObj__C                      
2002e46c  xdc_runtime_System_abortFxn__C                             
2002e470  xdc_runtime_System_exitFxn__C                              
2002e474  xdc_runtime_System_extendFxn__C                            
2002e478  xdc_runtime_System_maxAtexitHandlers__C                    
2002e47c  xdc_runtime_Text_charTab__C                                
2002e480  xdc_runtime_Text_nameEmpty__C                              
2002e484  xdc_runtime_Text_nameStatic__C                             
2002e488  xdc_runtime_Text_nameUnknown__C                            
2002e48c  xdc_runtime_Text_nodeTab__C                                
2002e490  xdc_runtime_Text_visitRopeFxn__C                           
2002e494  ti_sysbios_hal_Hwi_Module__id__C                           
2002e496  ti_sysbios_heaps_HeapMem_Module__id__C                     
2002e498  ti_sysbios_knl_Clock_Module__id__C                         
2002e49a  ti_sysbios_knl_Mailbox_Module__id__C                       
2002e49c  ti_sysbios_knl_Semaphore_Module__id__C                     
2002e49e  ti_sysbios_knl_Task_Module__id__C                          
2002e4a0  xdc_runtime_Core_Module__id__C                             
2002e4a2  xdc_runtime_Error_Module__loggerDefined__C                 
2002e4a4  xdc_runtime_Error_maxDepth__C                              
2002e4a6  xdc_runtime_Memory_Module__id__C                           
2002e4a8  xdc_runtime_SysMin_flushAtExit__C                          
2002e4aa  xdc_runtime_Text_charCnt__C                                
2002e4ac  xdc_runtime_Text_isLoaded__C                               
2002e4ae  xdc_runtime_Text_registryModsLastId__C                     
2002e4b0  xdc_runtime_Text_unnamedModsLastId__C                      
2002e4b2  ti_sysbios_knl_Clock_tickSource__C                         
2002e4b3  xdc_runtime_Error_policy__C                                
2002e4b4  ti_sysbios_knl_Swi_Module_State_0_readyQ__A                
2002e534  ti_sysbios_knl_Task_Module_State_0_readyQ__A               
2002e5b4  PowerCC3200_module                                         
2002e608  ti_sysbios_knl_Task_Object__table__V                       
2002e69c  ti_sysbios_knl_Task_Module__state__V                       
2002e6e0  ti_sysbios_gates_GateMutex_Object__table__V                
2002e718  ti_sysbios_family_arm_m3_Hwi_Module__state__V              
2002e74c  ti_sysbios_family_arm_m3_Timer_Object__table__V            
2002e77c  ti_sysbios_knl_Swi_Object__table__V                        
2002e7ac  ti_sysbios_knl_Clock_Module__state__V                      
2002e7d8  ti_sysbios_BIOS_Module__state__V                           
2002e7fc  ti_sysbios_knl_Swi_Module__state__V                        
2002e818  g_H2NSyncPattern                                           
2002e820  g_H2NCnysPattern                                           
2002e828  g_pCB                                                      
2002e82c  pPingCallBackFunc                                          
2002e830  gFirstCmdMode                                              
2002e832  ti_sysbios_family_arm_m3_Hwi_Module_State_0_excActive__A   
2002e834  ti_sysbios_family_arm_m3_Hwi_Object__table__V              
2002e84c  ti_sysbios_heaps_HeapMem_Object__table__V                  
2002e888  originFlagX                                                
2002e88c  originFlagY                                                
2002e890  insertPen                                                  
2002e894  firstTime                                                  
2002e895  extremePositions                                           
2002e896  xdc_runtime_Error_Module__state__V                         
2002e898  __TI_cleanup_ptr                                           
2002e89c  __TI_dtors_ptr                                             
2002e8a0  __TI_enable_exit_profile_output                            
2002e8a4  gpioCallbackFunctions                                      
2002e8b0  gpioPinConfigs                                             
2002e8bc  ti_sysbios_family_arm_m3_Timer_Module__state__V            
2002e8c8  xdc_runtime_SysMin_Module__state__V                        
2002e8d4  _lock                                                      
2002e8d8  _unlock                                                    
2002e8ec  ti_sysbios_family_arm_m3_Hwi_Module__root__V               
2002e8f4  ti_sysbios_gates_GateHwi_Module__root__V                   
2002e8fc  ti_sysbios_gates_GateMutex_Module__root__V                 
2002e904  ti_sysbios_heaps_HeapMem_Module__root__V                   
2002e90c  ti_sysbios_knl_Clock_Module__root__V                       
2002e914  ti_sysbios_knl_Mailbox_Module__root__V                     
2002e91c  ti_sysbios_knl_Queue_Module__root__V                       
2002e924  ti_sysbios_knl_Semaphore_Module__root__V                   
2002e92c  ti_sysbios_knl_Task_Module__root__V                        
2002e934  xdc_runtime_Registry_Module__state__V                      
2002e93c  xdc_runtime_Startup_Module__state__V                       
2002e944  xdc_runtime_System_Module_State_0_atexitHandlers__A        
2002e94c  xdc_runtime_System_Module__state__V                        
2002e96c  errno                                                      
2002e970  main_func_sp                                               
2002e974  ti_sysbios_family_arm_m3_Hwi_Module_State_0_excContext__A  
2002e978  ti_sysbios_family_arm_m3_Hwi_Module_State_0_excStack__A    
2002e97c  ti_sysbios_gates_GateHwi_Object__table__V                  
2002e980  ti_sysbios_knl_Task_Module_State_0_idleTask__A             
2002e984  xdc_runtime_Memory_Module__state__V                        
2002e98c  __stack                                                    
2002ec8c  __STACK_END                                                
2002ec90  __TI_static_base__                                         
2002efe8  __TI_Handler_Table_Base                                    
2002eff0  __TI_CINIT_Base                                            
2002eff0  __TI_Handler_Table_Limit                                   
2002f000  __TI_CINIT_Limit                                           
e000e000  ti_sysbios_family_arm_m3_Hwi_nvic                          
ffffffff  __TI_pprof_out_hndl                                        
ffffffff  __TI_prof_data_size                                        
ffffffff  __TI_prof_data_start                                       
ffffffff  __binit__                                                  
ffffffff  __c_args__                                                 
ffffffff  binit                                                      
UNDEFED   SHT$$INIT_ARRAY$$Base                                      
UNDEFED   SHT$$INIT_ARRAY$$Limit                                     

[1040 symbols]
